
rtarget:     file format elf64-x86-64


Disassembly of section .init:

0000000000000ed0 <_init>:
 ed0:	48 83 ec 08          	sub    $0x8,%rsp
 ed4:	48 8b 05 0d 41 20 00 	mov    0x20410d(%rip),%rax        # 204fe8 <__gmon_start__>
 edb:	48 85 c0             	test   %rax,%rax
 ede:	74 02                	je     ee2 <_init+0x12>
 ee0:	ff d0                	callq  *%rax
 ee2:	48 83 c4 08          	add    $0x8,%rsp
 ee6:	c3                   	retq   

Disassembly of section .plt:

0000000000000ef0 <.plt>:
     ef0:	ff 35 ca 3f 20 00    	pushq  0x203fca(%rip)        # 204ec0 <_GLOBAL_OFFSET_TABLE_+0x8>
     ef6:	ff 25 cc 3f 20 00    	jmpq   *0x203fcc(%rip)        # 204ec8 <_GLOBAL_OFFSET_TABLE_+0x10>
     efc:	0f 1f 40 00          	nopl   0x0(%rax)

0000000000000f00 <strcasecmp@plt>:
     f00:	ff 25 ca 3f 20 00    	jmpq   *0x203fca(%rip)        # 204ed0 <strcasecmp@GLIBC_2.2.5>
     f06:	68 00 00 00 00       	pushq  $0x0
     f0b:	e9 e0 ff ff ff       	jmpq   ef0 <.plt>

0000000000000f10 <__errno_location@plt>:
     f10:	ff 25 c2 3f 20 00    	jmpq   *0x203fc2(%rip)        # 204ed8 <__errno_location@GLIBC_2.2.5>
     f16:	68 01 00 00 00       	pushq  $0x1
     f1b:	e9 d0 ff ff ff       	jmpq   ef0 <.plt>

0000000000000f20 <srandom@plt>:
     f20:	ff 25 ba 3f 20 00    	jmpq   *0x203fba(%rip)        # 204ee0 <srandom@GLIBC_2.2.5>
     f26:	68 02 00 00 00       	pushq  $0x2
     f2b:	e9 c0 ff ff ff       	jmpq   ef0 <.plt>

0000000000000f30 <strncmp@plt>:
     f30:	ff 25 b2 3f 20 00    	jmpq   *0x203fb2(%rip)        # 204ee8 <strncmp@GLIBC_2.2.5>
     f36:	68 03 00 00 00       	pushq  $0x3
     f3b:	e9 b0 ff ff ff       	jmpq   ef0 <.plt>

0000000000000f40 <strcpy@plt>:
     f40:	ff 25 aa 3f 20 00    	jmpq   *0x203faa(%rip)        # 204ef0 <strcpy@GLIBC_2.2.5>
     f46:	68 04 00 00 00       	pushq  $0x4
     f4b:	e9 a0 ff ff ff       	jmpq   ef0 <.plt>

0000000000000f50 <puts@plt>:
     f50:	ff 25 a2 3f 20 00    	jmpq   *0x203fa2(%rip)        # 204ef8 <puts@GLIBC_2.2.5>
     f56:	68 05 00 00 00       	pushq  $0x5
     f5b:	e9 90 ff ff ff       	jmpq   ef0 <.plt>

0000000000000f60 <write@plt>:
     f60:	ff 25 9a 3f 20 00    	jmpq   *0x203f9a(%rip)        # 204f00 <write@GLIBC_2.2.5>
     f66:	68 06 00 00 00       	pushq  $0x6
     f6b:	e9 80 ff ff ff       	jmpq   ef0 <.plt>

0000000000000f70 <__stack_chk_fail@plt>:
     f70:	ff 25 92 3f 20 00    	jmpq   *0x203f92(%rip)        # 204f08 <__stack_chk_fail@GLIBC_2.4>
     f76:	68 07 00 00 00       	pushq  $0x7
     f7b:	e9 70 ff ff ff       	jmpq   ef0 <.plt>

0000000000000f80 <mmap@plt>:
     f80:	ff 25 8a 3f 20 00    	jmpq   *0x203f8a(%rip)        # 204f10 <mmap@GLIBC_2.2.5>
     f86:	68 08 00 00 00       	pushq  $0x8
     f8b:	e9 60 ff ff ff       	jmpq   ef0 <.plt>

0000000000000f90 <memset@plt>:
     f90:	ff 25 82 3f 20 00    	jmpq   *0x203f82(%rip)        # 204f18 <memset@GLIBC_2.2.5>
     f96:	68 09 00 00 00       	pushq  $0x9
     f9b:	e9 50 ff ff ff       	jmpq   ef0 <.plt>

0000000000000fa0 <alarm@plt>:
     fa0:	ff 25 7a 3f 20 00    	jmpq   *0x203f7a(%rip)        # 204f20 <alarm@GLIBC_2.2.5>
     fa6:	68 0a 00 00 00       	pushq  $0xa
     fab:	e9 40 ff ff ff       	jmpq   ef0 <.plt>

0000000000000fb0 <close@plt>:
     fb0:	ff 25 72 3f 20 00    	jmpq   *0x203f72(%rip)        # 204f28 <close@GLIBC_2.2.5>
     fb6:	68 0b 00 00 00       	pushq  $0xb
     fbb:	e9 30 ff ff ff       	jmpq   ef0 <.plt>

0000000000000fc0 <read@plt>:
     fc0:	ff 25 6a 3f 20 00    	jmpq   *0x203f6a(%rip)        # 204f30 <read@GLIBC_2.2.5>
     fc6:	68 0c 00 00 00       	pushq  $0xc
     fcb:	e9 20 ff ff ff       	jmpq   ef0 <.plt>

0000000000000fd0 <signal@plt>:
     fd0:	ff 25 62 3f 20 00    	jmpq   *0x203f62(%rip)        # 204f38 <signal@GLIBC_2.2.5>
     fd6:	68 0d 00 00 00       	pushq  $0xd
     fdb:	e9 10 ff ff ff       	jmpq   ef0 <.plt>

0000000000000fe0 <gethostbyname@plt>:
     fe0:	ff 25 5a 3f 20 00    	jmpq   *0x203f5a(%rip)        # 204f40 <gethostbyname@GLIBC_2.2.5>
     fe6:	68 0e 00 00 00       	pushq  $0xe
     feb:	e9 00 ff ff ff       	jmpq   ef0 <.plt>

0000000000000ff0 <__memmove_chk@plt>:
     ff0:	ff 25 52 3f 20 00    	jmpq   *0x203f52(%rip)        # 204f48 <__memmove_chk@GLIBC_2.3.4>
     ff6:	68 0f 00 00 00       	pushq  $0xf
     ffb:	e9 f0 fe ff ff       	jmpq   ef0 <.plt>

0000000000001000 <strtol@plt>:
    1000:	ff 25 4a 3f 20 00    	jmpq   *0x203f4a(%rip)        # 204f50 <strtol@GLIBC_2.2.5>
    1006:	68 10 00 00 00       	pushq  $0x10
    100b:	e9 e0 fe ff ff       	jmpq   ef0 <.plt>

0000000000001010 <memcpy@plt>:
    1010:	ff 25 42 3f 20 00    	jmpq   *0x203f42(%rip)        # 204f58 <memcpy@GLIBC_2.14>
    1016:	68 11 00 00 00       	pushq  $0x11
    101b:	e9 d0 fe ff ff       	jmpq   ef0 <.plt>

0000000000001020 <time@plt>:
    1020:	ff 25 3a 3f 20 00    	jmpq   *0x203f3a(%rip)        # 204f60 <time@GLIBC_2.2.5>
    1026:	68 12 00 00 00       	pushq  $0x12
    102b:	e9 c0 fe ff ff       	jmpq   ef0 <.plt>

0000000000001030 <random@plt>:
    1030:	ff 25 32 3f 20 00    	jmpq   *0x203f32(%rip)        # 204f68 <random@GLIBC_2.2.5>
    1036:	68 13 00 00 00       	pushq  $0x13
    103b:	e9 b0 fe ff ff       	jmpq   ef0 <.plt>

0000000000001040 <_IO_getc@plt>:
    1040:	ff 25 2a 3f 20 00    	jmpq   *0x203f2a(%rip)        # 204f70 <_IO_getc@GLIBC_2.2.5>
    1046:	68 14 00 00 00       	pushq  $0x14
    104b:	e9 a0 fe ff ff       	jmpq   ef0 <.plt>

0000000000001050 <__isoc99_sscanf@plt>:
    1050:	ff 25 22 3f 20 00    	jmpq   *0x203f22(%rip)        # 204f78 <__isoc99_sscanf@GLIBC_2.7>
    1056:	68 15 00 00 00       	pushq  $0x15
    105b:	e9 90 fe ff ff       	jmpq   ef0 <.plt>

0000000000001060 <munmap@plt>:
    1060:	ff 25 1a 3f 20 00    	jmpq   *0x203f1a(%rip)        # 204f80 <munmap@GLIBC_2.2.5>
    1066:	68 16 00 00 00       	pushq  $0x16
    106b:	e9 80 fe ff ff       	jmpq   ef0 <.plt>

0000000000001070 <__printf_chk@plt>:
    1070:	ff 25 12 3f 20 00    	jmpq   *0x203f12(%rip)        # 204f88 <__printf_chk@GLIBC_2.3.4>
    1076:	68 17 00 00 00       	pushq  $0x17
    107b:	e9 70 fe ff ff       	jmpq   ef0 <.plt>

0000000000001080 <fopen@plt>:
    1080:	ff 25 0a 3f 20 00    	jmpq   *0x203f0a(%rip)        # 204f90 <fopen@GLIBC_2.2.5>
    1086:	68 18 00 00 00       	pushq  $0x18
    108b:	e9 60 fe ff ff       	jmpq   ef0 <.plt>

0000000000001090 <getopt@plt>:
    1090:	ff 25 02 3f 20 00    	jmpq   *0x203f02(%rip)        # 204f98 <getopt@GLIBC_2.2.5>
    1096:	68 19 00 00 00       	pushq  $0x19
    109b:	e9 50 fe ff ff       	jmpq   ef0 <.plt>

00000000000010a0 <strtoul@plt>:
    10a0:	ff 25 fa 3e 20 00    	jmpq   *0x203efa(%rip)        # 204fa0 <strtoul@GLIBC_2.2.5>
    10a6:	68 1a 00 00 00       	pushq  $0x1a
    10ab:	e9 40 fe ff ff       	jmpq   ef0 <.plt>

00000000000010b0 <gethostname@plt>:
    10b0:	ff 25 f2 3e 20 00    	jmpq   *0x203ef2(%rip)        # 204fa8 <gethostname@GLIBC_2.2.5>
    10b6:	68 1b 00 00 00       	pushq  $0x1b
    10bb:	e9 30 fe ff ff       	jmpq   ef0 <.plt>

00000000000010c0 <exit@plt>:
    10c0:	ff 25 ea 3e 20 00    	jmpq   *0x203eea(%rip)        # 204fb0 <exit@GLIBC_2.2.5>
    10c6:	68 1c 00 00 00       	pushq  $0x1c
    10cb:	e9 20 fe ff ff       	jmpq   ef0 <.plt>

00000000000010d0 <connect@plt>:
    10d0:	ff 25 e2 3e 20 00    	jmpq   *0x203ee2(%rip)        # 204fb8 <connect@GLIBC_2.2.5>
    10d6:	68 1d 00 00 00       	pushq  $0x1d
    10db:	e9 10 fe ff ff       	jmpq   ef0 <.plt>

00000000000010e0 <__fprintf_chk@plt>:
    10e0:	ff 25 da 3e 20 00    	jmpq   *0x203eda(%rip)        # 204fc0 <__fprintf_chk@GLIBC_2.3.4>
    10e6:	68 1e 00 00 00       	pushq  $0x1e
    10eb:	e9 00 fe ff ff       	jmpq   ef0 <.plt>

00000000000010f0 <__sprintf_chk@plt>:
    10f0:	ff 25 d2 3e 20 00    	jmpq   *0x203ed2(%rip)        # 204fc8 <__sprintf_chk@GLIBC_2.3.4>
    10f6:	68 1f 00 00 00       	pushq  $0x1f
    10fb:	e9 f0 fd ff ff       	jmpq   ef0 <.plt>

0000000000001100 <socket@plt>:
    1100:	ff 25 ca 3e 20 00    	jmpq   *0x203eca(%rip)        # 204fd0 <socket@GLIBC_2.2.5>
    1106:	68 20 00 00 00       	pushq  $0x20
    110b:	e9 e0 fd ff ff       	jmpq   ef0 <.plt>

Disassembly of section .plt.got:

0000000000001110 <__cxa_finalize@plt>:
    1110:	ff 25 e2 3e 20 00    	jmpq   *0x203ee2(%rip)        # 204ff8 <__cxa_finalize@GLIBC_2.2.5>
    1116:	66 90                	xchg   %ax,%ax

Disassembly of section .text:

0000000000001120 <_start>:
    1120:	31 ed                	xor    %ebp,%ebp
    1122:	49 89 d1             	mov    %rdx,%r9
    1125:	5e                   	pop    %rsi
    1126:	48 89 e2             	mov    %rsp,%rdx
    1129:	48 83 e4 f0          	and    $0xfffffffffffffff0,%rsp
    112d:	50                   	push   %rax
    112e:	54                   	push   %rsp
    112f:	4c 8d 05 2a 21 00 00 	lea    0x212a(%rip),%r8        # 3260 <__libc_csu_fini>
    1136:	48 8d 0d b3 20 00 00 	lea    0x20b3(%rip),%rcx        # 31f0 <__libc_csu_init>
    113d:	48 8d 3d 0d 03 00 00 	lea    0x30d(%rip),%rdi        # 1451 <main>
    1144:	ff 15 96 3e 20 00    	callq  *0x203e96(%rip)        # 204fe0 <__libc_start_main@GLIBC_2.2.5>
    114a:	f4                   	hlt    
    114b:	0f 1f 44 00 00       	nopl   0x0(%rax,%rax,1)

0000000000001150 <deregister_tm_clones>:
    1150:	48 8d 3d 19 42 20 00 	lea    0x204219(%rip),%rdi        # 205370 <__TMC_END__>
    1157:	55                   	push   %rbp
    1158:	48 8d 05 11 42 20 00 	lea    0x204211(%rip),%rax        # 205370 <__TMC_END__>
    115f:	48 39 f8             	cmp    %rdi,%rax
    1162:	48 89 e5             	mov    %rsp,%rbp
    1165:	74 19                	je     1180 <deregister_tm_clones+0x30>
    1167:	48 8b 05 6a 3e 20 00 	mov    0x203e6a(%rip),%rax        # 204fd8 <_ITM_deregisterTMCloneTable>
    116e:	48 85 c0             	test   %rax,%rax
    1171:	74 0d                	je     1180 <deregister_tm_clones+0x30>
    1173:	5d                   	pop    %rbp
    1174:	ff e0                	jmpq   *%rax
    1176:	66 2e 0f 1f 84 00 00 	nopw   %cs:0x0(%rax,%rax,1)
    117d:	00 00 00 
    1180:	5d                   	pop    %rbp
    1181:	c3                   	retq   
    1182:	0f 1f 40 00          	nopl   0x0(%rax)
    1186:	66 2e 0f 1f 84 00 00 	nopw   %cs:0x0(%rax,%rax,1)
    118d:	00 00 00 

0000000000001190 <register_tm_clones>:
    1190:	48 8d 3d d9 41 20 00 	lea    0x2041d9(%rip),%rdi        # 205370 <__TMC_END__>
    1197:	48 8d 35 d2 41 20 00 	lea    0x2041d2(%rip),%rsi        # 205370 <__TMC_END__>
    119e:	55                   	push   %rbp
    119f:	48 29 fe             	sub    %rdi,%rsi
    11a2:	48 89 e5             	mov    %rsp,%rbp
    11a5:	48 c1 fe 03          	sar    $0x3,%rsi
    11a9:	48 89 f0             	mov    %rsi,%rax
    11ac:	48 c1 e8 3f          	shr    $0x3f,%rax
    11b0:	48 01 c6             	add    %rax,%rsi
    11b3:	48 d1 fe             	sar    %rsi
    11b6:	74 18                	je     11d0 <register_tm_clones+0x40>
    11b8:	48 8b 05 31 3e 20 00 	mov    0x203e31(%rip),%rax        # 204ff0 <_ITM_registerTMCloneTable>
    11bf:	48 85 c0             	test   %rax,%rax
    11c2:	74 0c                	je     11d0 <register_tm_clones+0x40>
    11c4:	5d                   	pop    %rbp
    11c5:	ff e0                	jmpq   *%rax
    11c7:	66 0f 1f 84 00 00 00 	nopw   0x0(%rax,%rax,1)
    11ce:	00 00 
    11d0:	5d                   	pop    %rbp
    11d1:	c3                   	retq   
    11d2:	0f 1f 40 00          	nopl   0x0(%rax)
    11d6:	66 2e 0f 1f 84 00 00 	nopw   %cs:0x0(%rax,%rax,1)
    11dd:	00 00 00 

00000000000011e0 <__do_global_dtors_aux>:
    11e0:	80 3d c1 41 20 00 00 	cmpb   $0x0,0x2041c1(%rip)        # 2053a8 <completed.7698>
    11e7:	75 2f                	jne    1218 <__do_global_dtors_aux+0x38>
    11e9:	48 83 3d 07 3e 20 00 	cmpq   $0x0,0x203e07(%rip)        # 204ff8 <__cxa_finalize@GLIBC_2.2.5>
    11f0:	00 
    11f1:	55                   	push   %rbp
    11f2:	48 89 e5             	mov    %rsp,%rbp
    11f5:	74 0c                	je     1203 <__do_global_dtors_aux+0x23>
    11f7:	48 8b 3d 0a 3e 20 00 	mov    0x203e0a(%rip),%rdi        # 205008 <__dso_handle>
    11fe:	e8 0d ff ff ff       	callq  1110 <__cxa_finalize@plt>
    1203:	e8 48 ff ff ff       	callq  1150 <deregister_tm_clones>
    1208:	c6 05 99 41 20 00 01 	movb   $0x1,0x204199(%rip)        # 2053a8 <completed.7698>
    120f:	5d                   	pop    %rbp
    1210:	c3                   	retq   
    1211:	0f 1f 80 00 00 00 00 	nopl   0x0(%rax)
    1218:	f3 c3                	repz retq 
    121a:	66 0f 1f 44 00 00    	nopw   0x0(%rax,%rax,1)

0000000000001220 <frame_dummy>:
    1220:	55                   	push   %rbp
    1221:	48 89 e5             	mov    %rsp,%rbp
    1224:	5d                   	pop    %rbp
    1225:	e9 66 ff ff ff       	jmpq   1190 <register_tm_clones>

000000000000122a <usage>:
    122a:	48 83 ec 08          	sub    $0x8,%rsp
    122e:	48 89 fa             	mov    %rdi,%rdx
    1231:	83 3d b0 41 20 00 00 	cmpl   $0x0,0x2041b0(%rip)        # 2053e8 <is_checker>
    1238:	74 50                	je     128a <usage+0x60>
    123a:	48 8d 35 37 20 00 00 	lea    0x2037(%rip),%rsi        # 3278 <_IO_stdin_used+0x8>
    1241:	bf 01 00 00 00       	mov    $0x1,%edi
    1246:	b8 00 00 00 00       	mov    $0x0,%eax
    124b:	e8 20 fe ff ff       	callq  1070 <__printf_chk@plt>
    1250:	48 8d 3d 59 20 00 00 	lea    0x2059(%rip),%rdi        # 32b0 <_IO_stdin_used+0x40>
    1257:	e8 f4 fc ff ff       	callq  f50 <puts@plt>
    125c:	48 8d 3d c5 21 00 00 	lea    0x21c5(%rip),%rdi        # 3428 <_IO_stdin_used+0x1b8>
    1263:	e8 e8 fc ff ff       	callq  f50 <puts@plt>
    1268:	48 8d 3d 69 20 00 00 	lea    0x2069(%rip),%rdi        # 32d8 <_IO_stdin_used+0x68>
    126f:	e8 dc fc ff ff       	callq  f50 <puts@plt>
    1274:	48 8d 3d c7 21 00 00 	lea    0x21c7(%rip),%rdi        # 3442 <_IO_stdin_used+0x1d2>
    127b:	e8 d0 fc ff ff       	callq  f50 <puts@plt>
    1280:	bf 00 00 00 00       	mov    $0x0,%edi
    1285:	e8 36 fe ff ff       	callq  10c0 <exit@plt>
    128a:	48 8d 35 cd 21 00 00 	lea    0x21cd(%rip),%rsi        # 345e <_IO_stdin_used+0x1ee>
    1291:	bf 01 00 00 00       	mov    $0x1,%edi
    1296:	b8 00 00 00 00       	mov    $0x0,%eax
    129b:	e8 d0 fd ff ff       	callq  1070 <__printf_chk@plt>
    12a0:	48 8d 3d 59 20 00 00 	lea    0x2059(%rip),%rdi        # 3300 <_IO_stdin_used+0x90>
    12a7:	e8 a4 fc ff ff       	callq  f50 <puts@plt>
    12ac:	48 8d 3d 75 20 00 00 	lea    0x2075(%rip),%rdi        # 3328 <_IO_stdin_used+0xb8>
    12b3:	e8 98 fc ff ff       	callq  f50 <puts@plt>
    12b8:	48 8d 3d bd 21 00 00 	lea    0x21bd(%rip),%rdi        # 347c <_IO_stdin_used+0x20c>
    12bf:	e8 8c fc ff ff       	callq  f50 <puts@plt>
    12c4:	eb ba                	jmp    1280 <usage+0x56>

00000000000012c6 <initialize_target>:
    12c6:	55                   	push   %rbp
    12c7:	53                   	push   %rbx
    12c8:	48 81 ec 18 21 00 00 	sub    $0x2118,%rsp
    12cf:	89 f5                	mov    %esi,%ebp
    12d1:	64 48 8b 04 25 28 00 	mov    %fs:0x28,%rax
    12d8:	00 00 
    12da:	48 89 84 24 08 21 00 	mov    %rax,0x2108(%rsp)
    12e1:	00 
    12e2:	31 c0                	xor    %eax,%eax
    12e4:	89 3d ee 40 20 00    	mov    %edi,0x2040ee(%rip)        # 2053d8 <check_level>
    12ea:	8b 3d 20 3d 20 00    	mov    0x203d20(%rip),%edi        # 205010 <target_id>
    12f0:	e8 d3 1e 00 00       	callq  31c8 <gencookie>
    12f5:	89 05 e9 40 20 00    	mov    %eax,0x2040e9(%rip)        # 2053e4 <cookie>
    12fb:	89 c7                	mov    %eax,%edi
    12fd:	e8 c6 1e 00 00       	callq  31c8 <gencookie>
    1302:	89 05 d8 40 20 00    	mov    %eax,0x2040d8(%rip)        # 2053e0 <authkey>
    1308:	8b 05 02 3d 20 00    	mov    0x203d02(%rip),%eax        # 205010 <target_id>
    130e:	8d 78 01             	lea    0x1(%rax),%edi
    1311:	e8 0a fc ff ff       	callq  f20 <srandom@plt>
    1316:	e8 15 fd ff ff       	callq  1030 <random@plt>
    131b:	89 c7                	mov    %eax,%edi
    131d:	e8 1a 03 00 00       	callq  163c <scramble>
    1322:	89 c3                	mov    %eax,%ebx
    1324:	85 ed                	test   %ebp,%ebp
    1326:	75 54                	jne    137c <initialize_target+0xb6>
    1328:	b8 00 00 00 00       	mov    $0x0,%eax
    132d:	01 d8                	add    %ebx,%eax
    132f:	0f b7 c0             	movzwl %ax,%eax
    1332:	8d 04 c5 00 01 00 00 	lea    0x100(,%rax,8),%eax
    1339:	89 c0                	mov    %eax,%eax
    133b:	48 89 05 1e 40 20 00 	mov    %rax,0x20401e(%rip)        # 205360 <buf_offset>
    1342:	c6 05 bf 4c 20 00 72 	movb   $0x72,0x204cbf(%rip)        # 206008 <target_prefix>
    1349:	83 3d 18 40 20 00 00 	cmpl   $0x0,0x204018(%rip)        # 205368 <notify>
    1350:	74 09                	je     135b <initialize_target+0x95>
    1352:	83 3d 8f 40 20 00 00 	cmpl   $0x0,0x20408f(%rip)        # 2053e8 <is_checker>
    1359:	74 39                	je     1394 <initialize_target+0xce>
    135b:	48 8b 84 24 08 21 00 	mov    0x2108(%rsp),%rax
    1362:	00 
    1363:	64 48 33 04 25 28 00 	xor    %fs:0x28,%rax
    136a:	00 00 
    136c:	0f 85 da 00 00 00    	jne    144c <initialize_target+0x186>
    1372:	48 81 c4 18 21 00 00 	add    $0x2118,%rsp
    1379:	5b                   	pop    %rbx
    137a:	5d                   	pop    %rbp
    137b:	c3                   	retq   
    137c:	bf 00 00 00 00       	mov    $0x0,%edi
    1381:	e8 9a fc ff ff       	callq  1020 <time@plt>
    1386:	89 c7                	mov    %eax,%edi
    1388:	e8 93 fb ff ff       	callq  f20 <srandom@plt>
    138d:	e8 9e fc ff ff       	callq  1030 <random@plt>
    1392:	eb 99                	jmp    132d <initialize_target+0x67>
    1394:	48 89 e7             	mov    %rsp,%rdi
    1397:	be 00 01 00 00       	mov    $0x100,%esi
    139c:	e8 0f fd ff ff       	callq  10b0 <gethostname@plt>
    13a1:	89 c5                	mov    %eax,%ebp
    13a3:	85 c0                	test   %eax,%eax
    13a5:	75 26                	jne    13cd <initialize_target+0x107>
    13a7:	89 c3                	mov    %eax,%ebx
    13a9:	48 63 c3             	movslq %ebx,%rax
    13ac:	48 8d 15 8d 3c 20 00 	lea    0x203c8d(%rip),%rdx        # 205040 <host_table>
    13b3:	48 8b 3c c2          	mov    (%rdx,%rax,8),%rdi
    13b7:	48 85 ff             	test   %rdi,%rdi
    13ba:	74 2c                	je     13e8 <initialize_target+0x122>
    13bc:	48 89 e6             	mov    %rsp,%rsi
    13bf:	e8 3c fb ff ff       	callq  f00 <strcasecmp@plt>
    13c4:	85 c0                	test   %eax,%eax
    13c6:	74 1b                	je     13e3 <initialize_target+0x11d>
    13c8:	83 c3 01             	add    $0x1,%ebx
    13cb:	eb dc                	jmp    13a9 <initialize_target+0xe3>
    13cd:	48 8d 3d 84 1f 00 00 	lea    0x1f84(%rip),%rdi        # 3358 <_IO_stdin_used+0xe8>
    13d4:	e8 77 fb ff ff       	callq  f50 <puts@plt>
    13d9:	bf 08 00 00 00       	mov    $0x8,%edi
    13de:	e8 dd fc ff ff       	callq  10c0 <exit@plt>
    13e3:	bd 01 00 00 00       	mov    $0x1,%ebp
    13e8:	85 ed                	test   %ebp,%ebp
    13ea:	74 3d                	je     1429 <initialize_target+0x163>
    13ec:	48 8d bc 24 00 01 00 	lea    0x100(%rsp),%rdi
    13f3:	00 
    13f4:	e8 ff 1a 00 00       	callq  2ef8 <init_driver>
    13f9:	85 c0                	test   %eax,%eax
    13fb:	0f 89 5a ff ff ff    	jns    135b <initialize_target+0x95>
    1401:	48 8d 94 24 00 01 00 	lea    0x100(%rsp),%rdx
    1408:	00 
    1409:	48 8d 35 c0 1f 00 00 	lea    0x1fc0(%rip),%rsi        # 33d0 <_IO_stdin_used+0x160>
    1410:	bf 01 00 00 00       	mov    $0x1,%edi
    1415:	b8 00 00 00 00       	mov    $0x0,%eax
    141a:	e8 51 fc ff ff       	callq  1070 <__printf_chk@plt>
    141f:	bf 08 00 00 00       	mov    $0x8,%edi
    1424:	e8 97 fc ff ff       	callq  10c0 <exit@plt>
    1429:	48 89 e2             	mov    %rsp,%rdx
    142c:	48 8d 35 5d 1f 00 00 	lea    0x1f5d(%rip),%rsi        # 3390 <_IO_stdin_used+0x120>
    1433:	bf 01 00 00 00       	mov    $0x1,%edi
    1438:	b8 00 00 00 00       	mov    $0x0,%eax
    143d:	e8 2e fc ff ff       	callq  1070 <__printf_chk@plt>
    1442:	bf 08 00 00 00       	mov    $0x8,%edi
    1447:	e8 74 fc ff ff       	callq  10c0 <exit@plt>
    144c:	e8 1f fb ff ff       	callq  f70 <__stack_chk_fail@plt>

0000000000001451 <main>:
    1451:	41 56                	push   %r14
    1453:	41 55                	push   %r13
    1455:	41 54                	push   %r12
    1457:	55                   	push   %rbp
    1458:	53                   	push   %rbx
    1459:	41 89 fc             	mov    %edi,%r12d
    145c:	48 89 f3             	mov    %rsi,%rbx
    145f:	48 8d 35 99 0d 00 00 	lea    0xd99(%rip),%rsi        # 21ff <seghandler>
    1466:	bf 0b 00 00 00       	mov    $0xb,%edi
    146b:	e8 60 fb ff ff       	callq  fd0 <signal@plt>
    1470:	48 8d 35 34 0d 00 00 	lea    0xd34(%rip),%rsi        # 21ab <bushandler>
    1477:	bf 07 00 00 00       	mov    $0x7,%edi
    147c:	e8 4f fb ff ff       	callq  fd0 <signal@plt>
    1481:	48 8d 35 cb 0d 00 00 	lea    0xdcb(%rip),%rsi        # 2253 <illegalhandler>
    1488:	bf 04 00 00 00       	mov    $0x4,%edi
    148d:	e8 3e fb ff ff       	callq  fd0 <signal@plt>
    1492:	83 3d 4f 3f 20 00 00 	cmpl   $0x0,0x203f4f(%rip)        # 2053e8 <is_checker>
    1499:	75 26                	jne    14c1 <main+0x70>
    149b:	48 8d 2d f3 1f 00 00 	lea    0x1ff3(%rip),%rbp        # 3495 <_IO_stdin_used+0x225>
    14a2:	48 8b 05 d7 3e 20 00 	mov    0x203ed7(%rip),%rax        # 205380 <stdin@@GLIBC_2.2.5>
    14a9:	48 89 05 20 3f 20 00 	mov    %rax,0x203f20(%rip)        # 2053d0 <infile>
    14b0:	41 bd 00 00 00 00    	mov    $0x0,%r13d
    14b6:	41 be 00 00 00 00    	mov    $0x0,%r14d
    14bc:	e9 8d 00 00 00       	jmpq   154e <main+0xfd>
    14c1:	48 8d 35 df 0d 00 00 	lea    0xddf(%rip),%rsi        # 22a7 <sigalrmhandler>
    14c8:	bf 0e 00 00 00       	mov    $0xe,%edi
    14cd:	e8 fe fa ff ff       	callq  fd0 <signal@plt>
    14d2:	bf 05 00 00 00       	mov    $0x5,%edi
    14d7:	e8 c4 fa ff ff       	callq  fa0 <alarm@plt>
    14dc:	48 8d 2d b7 1f 00 00 	lea    0x1fb7(%rip),%rbp        # 349a <_IO_stdin_used+0x22a>
    14e3:	eb bd                	jmp    14a2 <main+0x51>
    14e5:	48 8b 3b             	mov    (%rbx),%rdi
    14e8:	e8 3d fd ff ff       	callq  122a <usage>
    14ed:	48 8d 35 89 22 00 00 	lea    0x2289(%rip),%rsi        # 377d <_IO_stdin_used+0x50d>
    14f4:	48 8b 3d 8d 3e 20 00 	mov    0x203e8d(%rip),%rdi        # 205388 <optarg@@GLIBC_2.2.5>
    14fb:	e8 80 fb ff ff       	callq  1080 <fopen@plt>
    1500:	48 89 05 c9 3e 20 00 	mov    %rax,0x203ec9(%rip)        # 2053d0 <infile>
    1507:	48 85 c0             	test   %rax,%rax
    150a:	75 42                	jne    154e <main+0xfd>
    150c:	48 8b 0d 75 3e 20 00 	mov    0x203e75(%rip),%rcx        # 205388 <optarg@@GLIBC_2.2.5>
    1513:	48 8d 15 88 1f 00 00 	lea    0x1f88(%rip),%rdx        # 34a2 <_IO_stdin_used+0x232>
    151a:	be 01 00 00 00       	mov    $0x1,%esi
    151f:	48 8b 3d 7a 3e 20 00 	mov    0x203e7a(%rip),%rdi        # 2053a0 <stderr@@GLIBC_2.2.5>
    1526:	e8 b5 fb ff ff       	callq  10e0 <__fprintf_chk@plt>
    152b:	b8 01 00 00 00       	mov    $0x1,%eax
    1530:	e9 d9 00 00 00       	jmpq   160e <main+0x1bd>
    1535:	ba 10 00 00 00       	mov    $0x10,%edx
    153a:	be 00 00 00 00       	mov    $0x0,%esi
    153f:	48 8b 3d 42 3e 20 00 	mov    0x203e42(%rip),%rdi        # 205388 <optarg@@GLIBC_2.2.5>
    1546:	e8 55 fb ff ff       	callq  10a0 <strtoul@plt>
    154b:	41 89 c6             	mov    %eax,%r14d
    154e:	48 89 ea             	mov    %rbp,%rdx
    1551:	48 89 de             	mov    %rbx,%rsi
    1554:	44 89 e7             	mov    %r12d,%edi
    1557:	e8 34 fb ff ff       	callq  1090 <getopt@plt>
    155c:	3c ff                	cmp    $0xff,%al
    155e:	74 62                	je     15c2 <main+0x171>
    1560:	0f be d0             	movsbl %al,%edx
    1563:	83 e8 61             	sub    $0x61,%eax
    1566:	3c 10                	cmp    $0x10,%al
    1568:	77 3a                	ja     15a4 <main+0x153>
    156a:	0f b6 c0             	movzbl %al,%eax
    156d:	48 8d 0d 6c 1f 00 00 	lea    0x1f6c(%rip),%rcx        # 34e0 <_IO_stdin_used+0x270>
    1574:	48 63 04 81          	movslq (%rcx,%rax,4),%rax
    1578:	48 01 c8             	add    %rcx,%rax
    157b:	ff e0                	jmpq   *%rax
    157d:	ba 0a 00 00 00       	mov    $0xa,%edx
    1582:	be 00 00 00 00       	mov    $0x0,%esi
    1587:	48 8b 3d fa 3d 20 00 	mov    0x203dfa(%rip),%rdi        # 205388 <optarg@@GLIBC_2.2.5>
    158e:	e8 6d fa ff ff       	callq  1000 <strtol@plt>
    1593:	41 89 c5             	mov    %eax,%r13d
    1596:	eb b6                	jmp    154e <main+0xfd>
    1598:	c7 05 c6 3d 20 00 00 	movl   $0x0,0x203dc6(%rip)        # 205368 <notify>
    159f:	00 00 00 
    15a2:	eb aa                	jmp    154e <main+0xfd>
    15a4:	48 8d 35 14 1f 00 00 	lea    0x1f14(%rip),%rsi        # 34bf <_IO_stdin_used+0x24f>
    15ab:	bf 01 00 00 00       	mov    $0x1,%edi
    15b0:	b8 00 00 00 00       	mov    $0x0,%eax
    15b5:	e8 b6 fa ff ff       	callq  1070 <__printf_chk@plt>
    15ba:	48 8b 3b             	mov    (%rbx),%rdi
    15bd:	e8 68 fc ff ff       	callq  122a <usage>
    15c2:	be 01 00 00 00       	mov    $0x1,%esi
    15c7:	44 89 ef             	mov    %r13d,%edi
    15ca:	e8 f7 fc ff ff       	callq  12c6 <initialize_target>
    15cf:	83 3d 12 3e 20 00 00 	cmpl   $0x0,0x203e12(%rip)        # 2053e8 <is_checker>
    15d6:	74 09                	je     15e1 <main+0x190>
    15d8:	44 39 35 01 3e 20 00 	cmp    %r14d,0x203e01(%rip)        # 2053e0 <authkey>
    15df:	75 36                	jne    1617 <main+0x1c6>
    15e1:	8b 15 fd 3d 20 00    	mov    0x203dfd(%rip),%edx        # 2053e4 <cookie>
    15e7:	48 8d 35 e4 1e 00 00 	lea    0x1ee4(%rip),%rsi        # 34d2 <_IO_stdin_used+0x262>
    15ee:	bf 01 00 00 00       	mov    $0x1,%edi
    15f3:	b8 00 00 00 00       	mov    $0x0,%eax
    15f8:	e8 73 fa ff ff       	callq  1070 <__printf_chk@plt>
    15fd:	48 8b 3d 5c 3d 20 00 	mov    0x203d5c(%rip),%rdi        # 205360 <buf_offset>
    1604:	e8 f5 0c 00 00       	callq  22fe <launch>
    1609:	b8 00 00 00 00       	mov    $0x0,%eax
    160e:	5b                   	pop    %rbx
    160f:	5d                   	pop    %rbp
    1610:	41 5c                	pop    %r12
    1612:	41 5d                	pop    %r13
    1614:	41 5e                	pop    %r14
    1616:	c3                   	retq   
    1617:	44 89 f2             	mov    %r14d,%edx
    161a:	48 8d 35 d7 1d 00 00 	lea    0x1dd7(%rip),%rsi        # 33f8 <_IO_stdin_used+0x188>
    1621:	bf 01 00 00 00       	mov    $0x1,%edi
    1626:	b8 00 00 00 00       	mov    $0x0,%eax
    162b:	e8 40 fa ff ff       	callq  1070 <__printf_chk@plt>
    1630:	b8 00 00 00 00       	mov    $0x0,%eax
    1635:	e8 d1 07 00 00       	callq  1e0b <check_fail>
    163a:	eb a5                	jmp    15e1 <main+0x190>

000000000000163c <scramble>:
    163c:	48 83 ec 38          	sub    $0x38,%rsp
    1640:	64 48 8b 04 25 28 00 	mov    %fs:0x28,%rax
    1647:	00 00 
    1649:	48 89 44 24 28       	mov    %rax,0x28(%rsp)
    164e:	31 c0                	xor    %eax,%eax
    1650:	eb 10                	jmp    1662 <scramble+0x26>
    1652:	69 d0 52 3b 00 00    	imul   $0x3b52,%eax,%edx
    1658:	01 fa                	add    %edi,%edx
    165a:	89 c1                	mov    %eax,%ecx
    165c:	89 14 8c             	mov    %edx,(%rsp,%rcx,4)
    165f:	83 c0 01             	add    $0x1,%eax
    1662:	83 f8 09             	cmp    $0x9,%eax
    1665:	76 eb                	jbe    1652 <scramble+0x16>
    1667:	8b 44 24 24          	mov    0x24(%rsp),%eax
    166b:	69 c0 61 5f 00 00    	imul   $0x5f61,%eax,%eax
    1671:	89 44 24 24          	mov    %eax,0x24(%rsp)
    1675:	8b 44 24 04          	mov    0x4(%rsp),%eax
    1679:	69 c0 b8 7d 00 00    	imul   $0x7db8,%eax,%eax
    167f:	89 44 24 04          	mov    %eax,0x4(%rsp)
    1683:	8b 44 24 04          	mov    0x4(%rsp),%eax
    1687:	69 c0 ee e1 00 00    	imul   $0xe1ee,%eax,%eax
    168d:	89 44 24 04          	mov    %eax,0x4(%rsp)
    1691:	8b 44 24 04          	mov    0x4(%rsp),%eax
    1695:	69 c0 c8 24 00 00    	imul   $0x24c8,%eax,%eax
    169b:	89 44 24 04          	mov    %eax,0x4(%rsp)
    169f:	8b 44 24 10          	mov    0x10(%rsp),%eax
    16a3:	69 c0 8e 45 00 00    	imul   $0x458e,%eax,%eax
    16a9:	89 44 24 10          	mov    %eax,0x10(%rsp)
    16ad:	8b 44 24 24          	mov    0x24(%rsp),%eax
    16b1:	69 c0 f7 34 00 00    	imul   $0x34f7,%eax,%eax
    16b7:	89 44 24 24          	mov    %eax,0x24(%rsp)
    16bb:	8b 44 24 24          	mov    0x24(%rsp),%eax
    16bf:	69 c0 d8 14 00 00    	imul   $0x14d8,%eax,%eax
    16c5:	89 44 24 24          	mov    %eax,0x24(%rsp)
    16c9:	8b 44 24 1c          	mov    0x1c(%rsp),%eax
    16cd:	69 c0 ed 67 00 00    	imul   $0x67ed,%eax,%eax
    16d3:	89 44 24 1c          	mov    %eax,0x1c(%rsp)
    16d7:	8b 44 24 24          	mov    0x24(%rsp),%eax
    16db:	69 c0 23 35 00 00    	imul   $0x3523,%eax,%eax
    16e1:	89 44 24 24          	mov    %eax,0x24(%rsp)
    16e5:	8b 44 24 18          	mov    0x18(%rsp),%eax
    16e9:	69 c0 91 1c 00 00    	imul   $0x1c91,%eax,%eax
    16ef:	89 44 24 18          	mov    %eax,0x18(%rsp)
    16f3:	8b 44 24 04          	mov    0x4(%rsp),%eax
    16f7:	69 c0 d1 79 00 00    	imul   $0x79d1,%eax,%eax
    16fd:	89 44 24 04          	mov    %eax,0x4(%rsp)
    1701:	8b 44 24 0c          	mov    0xc(%rsp),%eax
    1705:	69 c0 59 e3 00 00    	imul   $0xe359,%eax,%eax
    170b:	89 44 24 0c          	mov    %eax,0xc(%rsp)
    170f:	8b 44 24 04          	mov    0x4(%rsp),%eax
    1713:	69 c0 40 9b 00 00    	imul   $0x9b40,%eax,%eax
    1719:	89 44 24 04          	mov    %eax,0x4(%rsp)
    171d:	8b 44 24 10          	mov    0x10(%rsp),%eax
    1721:	69 c0 1f df 00 00    	imul   $0xdf1f,%eax,%eax
    1727:	89 44 24 10          	mov    %eax,0x10(%rsp)
    172b:	8b 44 24 18          	mov    0x18(%rsp),%eax
    172f:	69 c0 1d d6 00 00    	imul   $0xd61d,%eax,%eax
    1735:	89 44 24 18          	mov    %eax,0x18(%rsp)
    1739:	8b 44 24 10          	mov    0x10(%rsp),%eax
    173d:	69 c0 df 09 00 00    	imul   $0x9df,%eax,%eax
    1743:	89 44 24 10          	mov    %eax,0x10(%rsp)
    1747:	8b 44 24 0c          	mov    0xc(%rsp),%eax
    174b:	69 c0 2d 0b 00 00    	imul   $0xb2d,%eax,%eax
    1751:	89 44 24 0c          	mov    %eax,0xc(%rsp)
    1755:	8b 04 24             	mov    (%rsp),%eax
    1758:	69 c0 7b 79 00 00    	imul   $0x797b,%eax,%eax
    175e:	89 04 24             	mov    %eax,(%rsp)
    1761:	8b 44 24 20          	mov    0x20(%rsp),%eax
    1765:	69 c0 30 0b 00 00    	imul   $0xb30,%eax,%eax
    176b:	89 44 24 20          	mov    %eax,0x20(%rsp)
    176f:	8b 44 24 10          	mov    0x10(%rsp),%eax
    1773:	69 c0 1d 4c 00 00    	imul   $0x4c1d,%eax,%eax
    1779:	89 44 24 10          	mov    %eax,0x10(%rsp)
    177d:	8b 04 24             	mov    (%rsp),%eax
    1780:	69 c0 00 e3 00 00    	imul   $0xe300,%eax,%eax
    1786:	89 04 24             	mov    %eax,(%rsp)
    1789:	8b 44 24 20          	mov    0x20(%rsp),%eax
    178d:	69 c0 47 be 00 00    	imul   $0xbe47,%eax,%eax
    1793:	89 44 24 20          	mov    %eax,0x20(%rsp)
    1797:	8b 44 24 04          	mov    0x4(%rsp),%eax
    179b:	69 c0 f5 a7 00 00    	imul   $0xa7f5,%eax,%eax
    17a1:	89 44 24 04          	mov    %eax,0x4(%rsp)
    17a5:	8b 44 24 04          	mov    0x4(%rsp),%eax
    17a9:	69 c0 ef 9b 00 00    	imul   $0x9bef,%eax,%eax
    17af:	89 44 24 04          	mov    %eax,0x4(%rsp)
    17b3:	8b 44 24 08          	mov    0x8(%rsp),%eax
    17b7:	69 c0 d8 73 00 00    	imul   $0x73d8,%eax,%eax
    17bd:	89 44 24 08          	mov    %eax,0x8(%rsp)
    17c1:	8b 44 24 0c          	mov    0xc(%rsp),%eax
    17c5:	69 c0 81 3a 00 00    	imul   $0x3a81,%eax,%eax
    17cb:	89 44 24 0c          	mov    %eax,0xc(%rsp)
    17cf:	8b 44 24 18          	mov    0x18(%rsp),%eax
    17d3:	69 c0 3b 42 00 00    	imul   $0x423b,%eax,%eax
    17d9:	89 44 24 18          	mov    %eax,0x18(%rsp)
    17dd:	8b 44 24 14          	mov    0x14(%rsp),%eax
    17e1:	69 c0 a6 fb 00 00    	imul   $0xfba6,%eax,%eax
    17e7:	89 44 24 14          	mov    %eax,0x14(%rsp)
    17eb:	8b 44 24 0c          	mov    0xc(%rsp),%eax
    17ef:	69 c0 7a 57 00 00    	imul   $0x577a,%eax,%eax
    17f5:	89 44 24 0c          	mov    %eax,0xc(%rsp)
    17f9:	8b 44 24 14          	mov    0x14(%rsp),%eax
    17fd:	69 c0 08 ac 00 00    	imul   $0xac08,%eax,%eax
    1803:	89 44 24 14          	mov    %eax,0x14(%rsp)
    1807:	8b 44 24 1c          	mov    0x1c(%rsp),%eax
    180b:	69 c0 ac 01 00 00    	imul   $0x1ac,%eax,%eax
    1811:	89 44 24 1c          	mov    %eax,0x1c(%rsp)
    1815:	8b 44 24 1c          	mov    0x1c(%rsp),%eax
    1819:	69 c0 15 63 00 00    	imul   $0x6315,%eax,%eax
    181f:	89 44 24 1c          	mov    %eax,0x1c(%rsp)
    1823:	8b 44 24 24          	mov    0x24(%rsp),%eax
    1827:	69 c0 7e 3d 00 00    	imul   $0x3d7e,%eax,%eax
    182d:	89 44 24 24          	mov    %eax,0x24(%rsp)
    1831:	8b 44 24 10          	mov    0x10(%rsp),%eax
    1835:	69 c0 f5 f9 00 00    	imul   $0xf9f5,%eax,%eax
    183b:	89 44 24 10          	mov    %eax,0x10(%rsp)
    183f:	8b 44 24 08          	mov    0x8(%rsp),%eax
    1843:	69 c0 d5 7a 00 00    	imul   $0x7ad5,%eax,%eax
    1849:	89 44 24 08          	mov    %eax,0x8(%rsp)
    184d:	8b 44 24 0c          	mov    0xc(%rsp),%eax
    1851:	69 c0 6d 99 00 00    	imul   $0x996d,%eax,%eax
    1857:	89 44 24 0c          	mov    %eax,0xc(%rsp)
    185b:	8b 44 24 20          	mov    0x20(%rsp),%eax
    185f:	69 c0 27 c7 00 00    	imul   $0xc727,%eax,%eax
    1865:	89 44 24 20          	mov    %eax,0x20(%rsp)
    1869:	8b 44 24 10          	mov    0x10(%rsp),%eax
    186d:	69 c0 ad 55 00 00    	imul   $0x55ad,%eax,%eax
    1873:	89 44 24 10          	mov    %eax,0x10(%rsp)
    1877:	8b 44 24 20          	mov    0x20(%rsp),%eax
    187b:	69 c0 e9 7d 00 00    	imul   $0x7de9,%eax,%eax
    1881:	89 44 24 20          	mov    %eax,0x20(%rsp)
    1885:	8b 44 24 04          	mov    0x4(%rsp),%eax
    1889:	69 c0 35 4c 00 00    	imul   $0x4c35,%eax,%eax
    188f:	89 44 24 04          	mov    %eax,0x4(%rsp)
    1893:	8b 44 24 08          	mov    0x8(%rsp),%eax
    1897:	69 c0 1c aa 00 00    	imul   $0xaa1c,%eax,%eax
    189d:	89 44 24 08          	mov    %eax,0x8(%rsp)
    18a1:	8b 44 24 1c          	mov    0x1c(%rsp),%eax
    18a5:	69 c0 6a df 00 00    	imul   $0xdf6a,%eax,%eax
    18ab:	89 44 24 1c          	mov    %eax,0x1c(%rsp)
    18af:	8b 44 24 10          	mov    0x10(%rsp),%eax
    18b3:	69 c0 91 a4 00 00    	imul   $0xa491,%eax,%eax
    18b9:	89 44 24 10          	mov    %eax,0x10(%rsp)
    18bd:	8b 44 24 24          	mov    0x24(%rsp),%eax
    18c1:	69 c0 d3 c9 00 00    	imul   $0xc9d3,%eax,%eax
    18c7:	89 44 24 24          	mov    %eax,0x24(%rsp)
    18cb:	8b 44 24 14          	mov    0x14(%rsp),%eax
    18cf:	69 c0 d6 b5 00 00    	imul   $0xb5d6,%eax,%eax
    18d5:	89 44 24 14          	mov    %eax,0x14(%rsp)
    18d9:	8b 44 24 08          	mov    0x8(%rsp),%eax
    18dd:	69 c0 a2 29 00 00    	imul   $0x29a2,%eax,%eax
    18e3:	89 44 24 08          	mov    %eax,0x8(%rsp)
    18e7:	8b 44 24 1c          	mov    0x1c(%rsp),%eax
    18eb:	69 c0 c2 2b 00 00    	imul   $0x2bc2,%eax,%eax
    18f1:	89 44 24 1c          	mov    %eax,0x1c(%rsp)
    18f5:	8b 44 24 10          	mov    0x10(%rsp),%eax
    18f9:	69 c0 5b c4 00 00    	imul   $0xc45b,%eax,%eax
    18ff:	89 44 24 10          	mov    %eax,0x10(%rsp)
    1903:	8b 44 24 04          	mov    0x4(%rsp),%eax
    1907:	69 c0 48 69 00 00    	imul   $0x6948,%eax,%eax
    190d:	89 44 24 04          	mov    %eax,0x4(%rsp)
    1911:	8b 44 24 1c          	mov    0x1c(%rsp),%eax
    1915:	69 c0 ee b1 00 00    	imul   $0xb1ee,%eax,%eax
    191b:	89 44 24 1c          	mov    %eax,0x1c(%rsp)
    191f:	8b 44 24 04          	mov    0x4(%rsp),%eax
    1923:	69 c0 63 04 00 00    	imul   $0x463,%eax,%eax
    1929:	89 44 24 04          	mov    %eax,0x4(%rsp)
    192d:	8b 44 24 20          	mov    0x20(%rsp),%eax
    1931:	69 c0 f2 41 00 00    	imul   $0x41f2,%eax,%eax
    1937:	89 44 24 20          	mov    %eax,0x20(%rsp)
    193b:	8b 44 24 0c          	mov    0xc(%rsp),%eax
    193f:	69 c0 10 a3 00 00    	imul   $0xa310,%eax,%eax
    1945:	89 44 24 0c          	mov    %eax,0xc(%rsp)
    1949:	8b 44 24 04          	mov    0x4(%rsp),%eax
    194d:	69 c0 a7 3a 00 00    	imul   $0x3aa7,%eax,%eax
    1953:	89 44 24 04          	mov    %eax,0x4(%rsp)
    1957:	8b 44 24 08          	mov    0x8(%rsp),%eax
    195b:	69 c0 3b 89 00 00    	imul   $0x893b,%eax,%eax
    1961:	89 44 24 08          	mov    %eax,0x8(%rsp)
    1965:	8b 44 24 14          	mov    0x14(%rsp),%eax
    1969:	69 c0 bb 12 00 00    	imul   $0x12bb,%eax,%eax
    196f:	89 44 24 14          	mov    %eax,0x14(%rsp)
    1973:	8b 44 24 04          	mov    0x4(%rsp),%eax
    1977:	69 c0 93 0d 00 00    	imul   $0xd93,%eax,%eax
    197d:	89 44 24 04          	mov    %eax,0x4(%rsp)
    1981:	8b 44 24 20          	mov    0x20(%rsp),%eax
    1985:	69 c0 af 1f 00 00    	imul   $0x1faf,%eax,%eax
    198b:	89 44 24 20          	mov    %eax,0x20(%rsp)
    198f:	8b 44 24 20          	mov    0x20(%rsp),%eax
    1993:	69 c0 36 cd 00 00    	imul   $0xcd36,%eax,%eax
    1999:	89 44 24 20          	mov    %eax,0x20(%rsp)
    199d:	8b 44 24 18          	mov    0x18(%rsp),%eax
    19a1:	69 c0 2f ae 00 00    	imul   $0xae2f,%eax,%eax
    19a7:	89 44 24 18          	mov    %eax,0x18(%rsp)
    19ab:	8b 44 24 14          	mov    0x14(%rsp),%eax
    19af:	69 c0 5d 5f 00 00    	imul   $0x5f5d,%eax,%eax
    19b5:	89 44 24 14          	mov    %eax,0x14(%rsp)
    19b9:	8b 44 24 1c          	mov    0x1c(%rsp),%eax
    19bd:	69 c0 8e 3a 00 00    	imul   $0x3a8e,%eax,%eax
    19c3:	89 44 24 1c          	mov    %eax,0x1c(%rsp)
    19c7:	8b 44 24 04          	mov    0x4(%rsp),%eax
    19cb:	69 c0 88 64 00 00    	imul   $0x6488,%eax,%eax
    19d1:	89 44 24 04          	mov    %eax,0x4(%rsp)
    19d5:	8b 44 24 04          	mov    0x4(%rsp),%eax
    19d9:	69 c0 5f f4 00 00    	imul   $0xf45f,%eax,%eax
    19df:	89 44 24 04          	mov    %eax,0x4(%rsp)
    19e3:	8b 44 24 04          	mov    0x4(%rsp),%eax
    19e7:	69 c0 3a bd 00 00    	imul   $0xbd3a,%eax,%eax
    19ed:	89 44 24 04          	mov    %eax,0x4(%rsp)
    19f1:	8b 44 24 18          	mov    0x18(%rsp),%eax
    19f5:	69 c0 ee b1 00 00    	imul   $0xb1ee,%eax,%eax
    19fb:	89 44 24 18          	mov    %eax,0x18(%rsp)
    19ff:	8b 44 24 04          	mov    0x4(%rsp),%eax
    1a03:	69 c0 a9 f1 00 00    	imul   $0xf1a9,%eax,%eax
    1a09:	89 44 24 04          	mov    %eax,0x4(%rsp)
    1a0d:	8b 44 24 14          	mov    0x14(%rsp),%eax
    1a11:	69 c0 28 8d 00 00    	imul   $0x8d28,%eax,%eax
    1a17:	89 44 24 14          	mov    %eax,0x14(%rsp)
    1a1b:	8b 44 24 04          	mov    0x4(%rsp),%eax
    1a1f:	69 c0 80 8b 00 00    	imul   $0x8b80,%eax,%eax
    1a25:	89 44 24 04          	mov    %eax,0x4(%rsp)
    1a29:	8b 04 24             	mov    (%rsp),%eax
    1a2c:	69 c0 b2 b5 00 00    	imul   $0xb5b2,%eax,%eax
    1a32:	89 04 24             	mov    %eax,(%rsp)
    1a35:	8b 44 24 04          	mov    0x4(%rsp),%eax
    1a39:	69 c0 ac 4e 00 00    	imul   $0x4eac,%eax,%eax
    1a3f:	89 44 24 04          	mov    %eax,0x4(%rsp)
    1a43:	8b 44 24 0c          	mov    0xc(%rsp),%eax
    1a47:	69 c0 13 48 00 00    	imul   $0x4813,%eax,%eax
    1a4d:	89 44 24 0c          	mov    %eax,0xc(%rsp)
    1a51:	ba 00 00 00 00       	mov    $0x0,%edx
    1a56:	b8 00 00 00 00       	mov    $0x0,%eax
    1a5b:	eb 0a                	jmp    1a67 <scramble+0x42b>
    1a5d:	89 d1                	mov    %edx,%ecx
    1a5f:	8b 0c 8c             	mov    (%rsp,%rcx,4),%ecx
    1a62:	01 c8                	add    %ecx,%eax
    1a64:	83 c2 01             	add    $0x1,%edx
    1a67:	83 fa 09             	cmp    $0x9,%edx
    1a6a:	76 f1                	jbe    1a5d <scramble+0x421>
    1a6c:	48 8b 74 24 28       	mov    0x28(%rsp),%rsi
    1a71:	64 48 33 34 25 28 00 	xor    %fs:0x28,%rsi
    1a78:	00 00 
    1a7a:	75 05                	jne    1a81 <scramble+0x445>
    1a7c:	48 83 c4 38          	add    $0x38,%rsp
    1a80:	c3                   	retq   
    1a81:	e8 ea f4 ff ff       	callq  f70 <__stack_chk_fail@plt>

0000000000001a86 <getbuf>:
    1a86:	48 83 ec 28          	sub    $0x28,%rsp
    1a8a:	48 89 e7             	mov    %rsp,%rdi
    1a8d:	e8 b1 03 00 00       	callq  1e43 <Gets>
    1a92:	b8 01 00 00 00       	mov    $0x1,%eax
    1a97:	48 83 c4 28          	add    $0x28,%rsp
    1a9b:	c3                   	retq   

0000000000001a9c <touch1>:
    1a9c:	48 83 ec 08          	sub    $0x8,%rsp
    1aa0:	c7 05 32 39 20 00 01 	movl   $0x1,0x203932(%rip)        # 2053dc <vlevel>
    1aa7:	00 00 00 
    1aaa:	48 8d 3d 21 1b 00 00 	lea    0x1b21(%rip),%rdi        # 35d2 <_IO_stdin_used+0x362>
    1ab1:	e8 9a f4 ff ff       	callq  f50 <puts@plt>
    1ab6:	bf 01 00 00 00       	mov    $0x1,%edi
    1abb:	e8 f3 05 00 00       	callq  20b3 <validate>
    1ac0:	bf 00 00 00 00       	mov    $0x0,%edi
    1ac5:	e8 f6 f5 ff ff       	callq  10c0 <exit@plt>

0000000000001aca <touch2>:
    1aca:	48 83 ec 08          	sub    $0x8,%rsp
    1ace:	89 fa                	mov    %edi,%edx
    1ad0:	c7 05 02 39 20 00 02 	movl   $0x2,0x203902(%rip)        # 2053dc <vlevel>
    1ad7:	00 00 00 
    1ada:	39 3d 04 39 20 00    	cmp    %edi,0x203904(%rip)        # 2053e4 <cookie>
    1ae0:	74 2a                	je     1b0c <touch2+0x42>
    1ae2:	48 8d 35 37 1b 00 00 	lea    0x1b37(%rip),%rsi        # 3620 <_IO_stdin_used+0x3b0>
    1ae9:	bf 01 00 00 00       	mov    $0x1,%edi
    1aee:	b8 00 00 00 00       	mov    $0x0,%eax
    1af3:	e8 78 f5 ff ff       	callq  1070 <__printf_chk@plt>
    1af8:	bf 02 00 00 00       	mov    $0x2,%edi
    1afd:	e8 81 06 00 00       	callq  2183 <fail>
    1b02:	bf 00 00 00 00       	mov    $0x0,%edi
    1b07:	e8 b4 f5 ff ff       	callq  10c0 <exit@plt>
    1b0c:	48 8d 35 e5 1a 00 00 	lea    0x1ae5(%rip),%rsi        # 35f8 <_IO_stdin_used+0x388>
    1b13:	bf 01 00 00 00       	mov    $0x1,%edi
    1b18:	b8 00 00 00 00       	mov    $0x0,%eax
    1b1d:	e8 4e f5 ff ff       	callq  1070 <__printf_chk@plt>
    1b22:	bf 02 00 00 00       	mov    $0x2,%edi
    1b27:	e8 87 05 00 00       	callq  20b3 <validate>
    1b2c:	eb d4                	jmp    1b02 <touch2+0x38>

0000000000001b2e <hexmatch>:
    1b2e:	41 54                	push   %r12
    1b30:	55                   	push   %rbp
    1b31:	53                   	push   %rbx
    1b32:	48 83 c4 80          	add    $0xffffffffffffff80,%rsp
    1b36:	89 fd                	mov    %edi,%ebp
    1b38:	48 89 f3             	mov    %rsi,%rbx
    1b3b:	64 48 8b 04 25 28 00 	mov    %fs:0x28,%rax
    1b42:	00 00 
    1b44:	48 89 44 24 78       	mov    %rax,0x78(%rsp)
    1b49:	31 c0                	xor    %eax,%eax
    1b4b:	e8 e0 f4 ff ff       	callq  1030 <random@plt>
    1b50:	48 89 c1             	mov    %rax,%rcx
    1b53:	48 ba 0b d7 a3 70 3d 	movabs $0xa3d70a3d70a3d70b,%rdx
    1b5a:	0a d7 a3 
    1b5d:	48 f7 ea             	imul   %rdx
    1b60:	48 01 ca             	add    %rcx,%rdx
    1b63:	48 c1 fa 06          	sar    $0x6,%rdx
    1b67:	48 89 c8             	mov    %rcx,%rax
    1b6a:	48 c1 f8 3f          	sar    $0x3f,%rax
    1b6e:	48 29 c2             	sub    %rax,%rdx
    1b71:	48 8d 04 92          	lea    (%rdx,%rdx,4),%rax
    1b75:	48 8d 14 80          	lea    (%rax,%rax,4),%rdx
    1b79:	48 8d 04 95 00 00 00 	lea    0x0(,%rdx,4),%rax
    1b80:	00 
    1b81:	48 29 c1             	sub    %rax,%rcx
    1b84:	4c 8d 24 0c          	lea    (%rsp,%rcx,1),%r12
    1b88:	41 89 e8             	mov    %ebp,%r8d
    1b8b:	48 8d 0d 5d 1a 00 00 	lea    0x1a5d(%rip),%rcx        # 35ef <_IO_stdin_used+0x37f>
    1b92:	48 c7 c2 ff ff ff ff 	mov    $0xffffffffffffffff,%rdx
    1b99:	be 01 00 00 00       	mov    $0x1,%esi
    1b9e:	4c 89 e7             	mov    %r12,%rdi
    1ba1:	b8 00 00 00 00       	mov    $0x0,%eax
    1ba6:	e8 45 f5 ff ff       	callq  10f0 <__sprintf_chk@plt>
    1bab:	ba 09 00 00 00       	mov    $0x9,%edx
    1bb0:	4c 89 e6             	mov    %r12,%rsi
    1bb3:	48 89 df             	mov    %rbx,%rdi
    1bb6:	e8 75 f3 ff ff       	callq  f30 <strncmp@plt>
    1bbb:	85 c0                	test   %eax,%eax
    1bbd:	0f 94 c0             	sete   %al
    1bc0:	48 8b 5c 24 78       	mov    0x78(%rsp),%rbx
    1bc5:	64 48 33 1c 25 28 00 	xor    %fs:0x28,%rbx
    1bcc:	00 00 
    1bce:	75 0c                	jne    1bdc <hexmatch+0xae>
    1bd0:	0f b6 c0             	movzbl %al,%eax
    1bd3:	48 83 ec 80          	sub    $0xffffffffffffff80,%rsp
    1bd7:	5b                   	pop    %rbx
    1bd8:	5d                   	pop    %rbp
    1bd9:	41 5c                	pop    %r12
    1bdb:	c3                   	retq   
    1bdc:	e8 8f f3 ff ff       	callq  f70 <__stack_chk_fail@plt>

0000000000001be1 <touch3>:
    1be1:	53                   	push   %rbx
    1be2:	48 89 fb             	mov    %rdi,%rbx
    1be5:	c7 05 ed 37 20 00 03 	movl   $0x3,0x2037ed(%rip)        # 2053dc <vlevel>
    1bec:	00 00 00 
    1bef:	48 89 fe             	mov    %rdi,%rsi
    1bf2:	8b 3d ec 37 20 00    	mov    0x2037ec(%rip),%edi        # 2053e4 <cookie>
    1bf8:	e8 31 ff ff ff       	callq  1b2e <hexmatch>
    1bfd:	85 c0                	test   %eax,%eax
    1bff:	74 2d                	je     1c2e <touch3+0x4d>
    1c01:	48 89 da             	mov    %rbx,%rdx
    1c04:	48 8d 35 3d 1a 00 00 	lea    0x1a3d(%rip),%rsi        # 3648 <_IO_stdin_used+0x3d8>
    1c0b:	bf 01 00 00 00       	mov    $0x1,%edi
    1c10:	b8 00 00 00 00       	mov    $0x0,%eax
    1c15:	e8 56 f4 ff ff       	callq  1070 <__printf_chk@plt>
    1c1a:	bf 03 00 00 00       	mov    $0x3,%edi
    1c1f:	e8 8f 04 00 00       	callq  20b3 <validate>
    1c24:	bf 00 00 00 00       	mov    $0x0,%edi
    1c29:	e8 92 f4 ff ff       	callq  10c0 <exit@plt>
    1c2e:	48 89 da             	mov    %rbx,%rdx
    1c31:	48 8d 35 38 1a 00 00 	lea    0x1a38(%rip),%rsi        # 3670 <_IO_stdin_used+0x400>
    1c38:	bf 01 00 00 00       	mov    $0x1,%edi
    1c3d:	b8 00 00 00 00       	mov    $0x0,%eax
    1c42:	e8 29 f4 ff ff       	callq  1070 <__printf_chk@plt>
    1c47:	bf 03 00 00 00       	mov    $0x3,%edi
    1c4c:	e8 32 05 00 00       	callq  2183 <fail>
    1c51:	eb d1                	jmp    1c24 <touch3+0x43>

0000000000001c53 <test>:
    1c53:	48 83 ec 08          	sub    $0x8,%rsp
    1c57:	b8 00 00 00 00       	mov    $0x0,%eax
    1c5c:	e8 25 fe ff ff       	callq  1a86 <getbuf>
    1c61:	89 c2                	mov    %eax,%edx
    1c63:	48 8d 35 2e 1a 00 00 	lea    0x1a2e(%rip),%rsi        # 3698 <_IO_stdin_used+0x428>
    1c6a:	bf 01 00 00 00       	mov    $0x1,%edi
    1c6f:	b8 00 00 00 00       	mov    $0x0,%eax
    1c74:	e8 f7 f3 ff ff       	callq  1070 <__printf_chk@plt>
    1c79:	48 83 c4 08          	add    $0x8,%rsp
    1c7d:	c3                   	retq   

0000000000001c7e <start_farm>:
    1c7e:	b8 01 00 00 00       	mov    $0x1,%eax
    1c83:	c3                   	retq   

0000000000001c84 <setval_211>:
    1c84:	c7 07 18 90 90 c3    	movl   $0xc3909018,(%rdi)
    1c8a:	c3                   	retq   

0000000000001c8b <getval_276>:
    1c8b:	b8 77 c7 0a 58       	mov    $0x580ac777,%eax
    1c90:	c3                   	retq   

0000000000001c91 <getval_360>:
    1c91:	b8 48 89 c7 92       	mov    $0x92c78948,%eax
    1c96:	c3                   	retq   

0000000000001c97 <setval_253>:
    1c97:	c7 07 48 89 c7 c3    	movl   $0xc3c78948,(%rdi)
    1c9d:	c3                   	retq   

0000000000001c9e <getval_232>:
    1c9e:	b8 aa 40 89 c7       	mov    $0xc78940aa,%eax
    1ca3:	c3                   	retq   

0000000000001ca4 <addval_240>:
    1ca4:	8d 87 79 50 c3 06    	lea    0x6c35079(%rdi),%eax
    1caa:	c3                   	retq   

0000000000001cab <addval_351>:
    1cab:	8d 87 48 89 c7 c3    	lea    -0x3c3876b8(%rdi),%eax
    1cb1:	c3                   	retq   

0000000000001cb2 <setval_228>:
    1cb2:	c7 07 f4 dc 58 90    	movl   $0x9058dcf4,(%rdi)
    1cb8:	c3                   	retq   

0000000000001cb9 <mid_farm>:
    1cb9:	b8 01 00 00 00       	mov    $0x1,%eax
    1cbe:	c3                   	retq   

0000000000001cbf <add_xy>:
    1cbf:	48 8d 04 37          	lea    (%rdi,%rsi,1),%rax
    1cc3:	c3                   	retq   

0000000000001cc4 <getval_299>:
    1cc4:	b8 48 89 e0 94       	mov    $0x94e08948,%eax
    1cc9:	c3                   	retq   

0000000000001cca <getval_454>:
    1cca:	b8 89 d1 08 c0       	mov    $0xc008d189,%eax
    1ccf:	c3                   	retq   

0000000000001cd0 <getval_210>:
    1cd0:	b8 89 c2 00 db       	mov    $0xdb00c289,%eax
    1cd5:	c3                   	retq   

0000000000001cd6 <addval_165>:
    1cd6:	8d 87 89 ce c4 d2    	lea    -0x2d3b3177(%rdi),%eax
    1cdc:	c3                   	retq   

0000000000001cdd <setval_175>:
    1cdd:	c7 07 48 89 e0 92    	movl   $0x92e08948,(%rdi)
    1ce3:	c3                   	retq   

0000000000001ce4 <getval_332>:
    1ce4:	b8 08 89 e0 90       	mov    $0x90e08908,%eax
    1ce9:	c3                   	retq   

0000000000001cea <addval_493>:
    1cea:	8d 87 a8 cb 09 ce    	lea    -0x31f63458(%rdi),%eax
    1cf0:	c3                   	retq   

0000000000001cf1 <setval_444>:
    1cf1:	c7 07 d0 09 ce 90    	movl   $0x90ce09d0,(%rdi)
    1cf7:	c3                   	retq   

0000000000001cf8 <addval_440>:
    1cf8:	8d 87 48 89 e0 c7    	lea    -0x381f76b8(%rdi),%eax
    1cfe:	c3                   	retq   

0000000000001cff <getval_237>:
    1cff:	b8 89 ce a4 d2       	mov    $0xd2a4ce89,%eax
    1d04:	c3                   	retq   

0000000000001d05 <addval_168>:
    1d05:	8d 87 f5 89 c2 94    	lea    -0x6b3d760b(%rdi),%eax
    1d0b:	c3                   	retq   

0000000000001d0c <getval_186>:
    1d0c:	b8 89 ce 60 c0       	mov    $0xc060ce89,%eax
    1d11:	c3                   	retq   

0000000000001d12 <setval_196>:
    1d12:	c7 07 89 c2 20 c0    	movl   $0xc020c289,(%rdi)
    1d18:	c3                   	retq   

0000000000001d19 <getval_443>:
    1d19:	b8 d9 89 d1 c7       	mov    $0xc7d189d9,%eax
    1d1e:	c3                   	retq   

0000000000001d1f <addval_227>:
    1d1f:	8d 87 a9 c2 90 90    	lea    -0x6f6f3d57(%rdi),%eax
    1d25:	c3                   	retq   

0000000000001d26 <addval_281>:
    1d26:	8d 87 88 ce 38 c0    	lea    -0x3fc73178(%rdi),%eax
    1d2c:	c3                   	retq   

0000000000001d2d <addval_391>:
    1d2d:	8d 87 89 d1 38 db    	lea    -0x24c72e77(%rdi),%eax
    1d33:	c3                   	retq   

0000000000001d34 <addval_346>:
    1d34:	8d 87 89 d1 60 d2    	lea    -0x2d9f2e77(%rdi),%eax
    1d3a:	c3                   	retq   

0000000000001d3b <getval_442>:
    1d3b:	b8 89 ce 90 90       	mov    $0x9090ce89,%eax
    1d40:	c3                   	retq   

0000000000001d41 <addval_333>:
    1d41:	8d 87 48 89 e0 c7    	lea    -0x381f76b8(%rdi),%eax
    1d47:	c3                   	retq   

0000000000001d48 <getval_259>:
    1d48:	b8 89 c2 78 d2       	mov    $0xd278c289,%eax
    1d4d:	c3                   	retq   

0000000000001d4e <addval_100>:
    1d4e:	8d 87 89 c2 c2 f3    	lea    -0xc3d3d77(%rdi),%eax
    1d54:	c3                   	retq   

0000000000001d55 <getval_412>:
    1d55:	b8 6b bd 89 c2       	mov    $0xc289bd6b,%eax
    1d5a:	c3                   	retq   

0000000000001d5b <addval_289>:
    1d5b:	8d 87 89 ce 90 c3    	lea    -0x3c6f3177(%rdi),%eax
    1d61:	c3                   	retq   

0000000000001d62 <addval_311>:
    1d62:	8d 87 48 89 e0 c3    	lea    -0x3c1f76b8(%rdi),%eax
    1d68:	c3                   	retq   

0000000000001d69 <getval_128>:
    1d69:	b8 89 d1 28 c0       	mov    $0xc028d189,%eax
    1d6e:	c3                   	retq   

0000000000001d6f <getval_248>:
    1d6f:	b8 88 d1 90 90       	mov    $0x9090d188,%eax
    1d74:	c3                   	retq   

0000000000001d75 <getval_451>:
    1d75:	b8 48 89 e0 c3       	mov    $0xc3e08948,%eax
    1d7a:	c3                   	retq   

0000000000001d7b <getval_380>:
    1d7b:	b8 e7 89 d1 c1       	mov    $0xc1d189e7,%eax
    1d80:	c3                   	retq   

0000000000001d81 <getval_394>:
    1d81:	b8 89 d1 30 c9       	mov    $0xc930d189,%eax
    1d86:	c3                   	retq   

0000000000001d87 <setval_244>:
    1d87:	c7 07 7f 89 c2 94    	movl   $0x94c2897f,(%rdi)
    1d8d:	c3                   	retq   

0000000000001d8e <addval_452>:
    1d8e:	8d 87 58 89 e0 90    	lea    -0x6f1f76a8(%rdi),%eax
    1d94:	c3                   	retq   

0000000000001d95 <end_farm>:
    1d95:	b8 01 00 00 00       	mov    $0x1,%eax
    1d9a:	c3                   	retq   

0000000000001d9b <save_char>:
    1d9b:	8b 05 63 42 20 00    	mov    0x204263(%rip),%eax        # 206004 <gets_cnt>
    1da1:	3d ff 03 00 00       	cmp    $0x3ff,%eax
    1da6:	7f 4a                	jg     1df2 <save_char+0x57>
    1da8:	89 f9                	mov    %edi,%ecx
    1daa:	c0 e9 04             	shr    $0x4,%cl
    1dad:	8d 14 40             	lea    (%rax,%rax,2),%edx
    1db0:	4c 8d 05 09 1c 00 00 	lea    0x1c09(%rip),%r8        # 39c0 <trans_char>
    1db7:	83 e1 0f             	and    $0xf,%ecx
    1dba:	45 0f b6 0c 08       	movzbl (%r8,%rcx,1),%r9d
    1dbf:	48 8d 0d 3a 36 20 00 	lea    0x20363a(%rip),%rcx        # 205400 <gets_buf>
    1dc6:	48 63 f2             	movslq %edx,%rsi
    1dc9:	44 88 0c 31          	mov    %r9b,(%rcx,%rsi,1)
    1dcd:	8d 72 01             	lea    0x1(%rdx),%esi
    1dd0:	83 e7 0f             	and    $0xf,%edi
    1dd3:	41 0f b6 3c 38       	movzbl (%r8,%rdi,1),%edi
    1dd8:	48 63 f6             	movslq %esi,%rsi
    1ddb:	40 88 3c 31          	mov    %dil,(%rcx,%rsi,1)
    1ddf:	83 c2 02             	add    $0x2,%edx
    1de2:	48 63 d2             	movslq %edx,%rdx
    1de5:	c6 04 11 20          	movb   $0x20,(%rcx,%rdx,1)
    1de9:	83 c0 01             	add    $0x1,%eax
    1dec:	89 05 12 42 20 00    	mov    %eax,0x204212(%rip)        # 206004 <gets_cnt>
    1df2:	f3 c3                	repz retq 

0000000000001df4 <save_term>:
    1df4:	8b 05 0a 42 20 00    	mov    0x20420a(%rip),%eax        # 206004 <gets_cnt>
    1dfa:	8d 04 40             	lea    (%rax,%rax,2),%eax
    1dfd:	48 98                	cltq   
    1dff:	48 8d 15 fa 35 20 00 	lea    0x2035fa(%rip),%rdx        # 205400 <gets_buf>
    1e06:	c6 04 02 00          	movb   $0x0,(%rdx,%rax,1)
    1e0a:	c3                   	retq   

0000000000001e0b <check_fail>:
    1e0b:	48 83 ec 08          	sub    $0x8,%rsp
    1e0f:	0f be 15 f2 41 20 00 	movsbl 0x2041f2(%rip),%edx        # 206008 <target_prefix>
    1e16:	4c 8d 05 e3 35 20 00 	lea    0x2035e3(%rip),%r8        # 205400 <gets_buf>
    1e1d:	8b 0d b5 35 20 00    	mov    0x2035b5(%rip),%ecx        # 2053d8 <check_level>
    1e23:	48 8d 35 91 18 00 00 	lea    0x1891(%rip),%rsi        # 36bb <_IO_stdin_used+0x44b>
    1e2a:	bf 01 00 00 00       	mov    $0x1,%edi
    1e2f:	b8 00 00 00 00       	mov    $0x0,%eax
    1e34:	e8 37 f2 ff ff       	callq  1070 <__printf_chk@plt>
    1e39:	bf 01 00 00 00       	mov    $0x1,%edi
    1e3e:	e8 7d f2 ff ff       	callq  10c0 <exit@plt>

0000000000001e43 <Gets>:
    1e43:	41 54                	push   %r12
    1e45:	55                   	push   %rbp
    1e46:	53                   	push   %rbx
    1e47:	49 89 fc             	mov    %rdi,%r12
    1e4a:	c7 05 b0 41 20 00 00 	movl   $0x0,0x2041b0(%rip)        # 206004 <gets_cnt>
    1e51:	00 00 00 
    1e54:	48 89 fb             	mov    %rdi,%rbx
    1e57:	eb 11                	jmp    1e6a <Gets+0x27>
    1e59:	48 8d 6b 01          	lea    0x1(%rbx),%rbp
    1e5d:	88 03                	mov    %al,(%rbx)
    1e5f:	0f b6 f8             	movzbl %al,%edi
    1e62:	e8 34 ff ff ff       	callq  1d9b <save_char>
    1e67:	48 89 eb             	mov    %rbp,%rbx
    1e6a:	48 8b 3d 5f 35 20 00 	mov    0x20355f(%rip),%rdi        # 2053d0 <infile>
    1e71:	e8 ca f1 ff ff       	callq  1040 <_IO_getc@plt>
    1e76:	83 f8 ff             	cmp    $0xffffffff,%eax
    1e79:	74 05                	je     1e80 <Gets+0x3d>
    1e7b:	83 f8 0a             	cmp    $0xa,%eax
    1e7e:	75 d9                	jne    1e59 <Gets+0x16>
    1e80:	c6 03 00             	movb   $0x0,(%rbx)
    1e83:	b8 00 00 00 00       	mov    $0x0,%eax
    1e88:	e8 67 ff ff ff       	callq  1df4 <save_term>
    1e8d:	4c 89 e0             	mov    %r12,%rax
    1e90:	5b                   	pop    %rbx
    1e91:	5d                   	pop    %rbp
    1e92:	41 5c                	pop    %r12
    1e94:	c3                   	retq   

0000000000001e95 <notify_server>:
    1e95:	55                   	push   %rbp
    1e96:	53                   	push   %rbx
    1e97:	48 81 ec 18 40 00 00 	sub    $0x4018,%rsp
    1e9e:	64 48 8b 04 25 28 00 	mov    %fs:0x28,%rax
    1ea5:	00 00 
    1ea7:	48 89 84 24 08 40 00 	mov    %rax,0x4008(%rsp)
    1eae:	00 
    1eaf:	31 c0                	xor    %eax,%eax
    1eb1:	83 3d 30 35 20 00 00 	cmpl   $0x0,0x203530(%rip)        # 2053e8 <is_checker>
    1eb8:	0f 85 d2 00 00 00    	jne    1f90 <notify_server+0xfb>
    1ebe:	89 fb                	mov    %edi,%ebx
    1ec0:	8b 05 3e 41 20 00    	mov    0x20413e(%rip),%eax        # 206004 <gets_cnt>
    1ec6:	83 c0 64             	add    $0x64,%eax
    1ec9:	3d 00 20 00 00       	cmp    $0x2000,%eax
    1ece:	0f 8f dd 00 00 00    	jg     1fb1 <notify_server+0x11c>
    1ed4:	0f be 05 2d 41 20 00 	movsbl 0x20412d(%rip),%eax        # 206008 <target_prefix>
    1edb:	83 3d 86 34 20 00 00 	cmpl   $0x0,0x203486(%rip)        # 205368 <notify>
    1ee2:	0f 84 e9 00 00 00    	je     1fd1 <notify_server+0x13c>
    1ee8:	8b 15 f2 34 20 00    	mov    0x2034f2(%rip),%edx        # 2053e0 <authkey>
    1eee:	85 db                	test   %ebx,%ebx
    1ef0:	0f 84 e5 00 00 00    	je     1fdb <notify_server+0x146>
    1ef6:	48 8d 2d d4 17 00 00 	lea    0x17d4(%rip),%rbp        # 36d1 <_IO_stdin_used+0x461>
    1efd:	48 89 e7             	mov    %rsp,%rdi
    1f00:	48 8d 0d f9 34 20 00 	lea    0x2034f9(%rip),%rcx        # 205400 <gets_buf>
    1f07:	51                   	push   %rcx
    1f08:	56                   	push   %rsi
    1f09:	50                   	push   %rax
    1f0a:	52                   	push   %rdx
    1f0b:	49 89 e9             	mov    %rbp,%r9
    1f0e:	44 8b 05 fb 30 20 00 	mov    0x2030fb(%rip),%r8d        # 205010 <target_id>
    1f15:	48 8d 0d bf 17 00 00 	lea    0x17bf(%rip),%rcx        # 36db <_IO_stdin_used+0x46b>
    1f1c:	ba 00 20 00 00       	mov    $0x2000,%edx
    1f21:	be 01 00 00 00       	mov    $0x1,%esi
    1f26:	b8 00 00 00 00       	mov    $0x0,%eax
    1f2b:	e8 c0 f1 ff ff       	callq  10f0 <__sprintf_chk@plt>
    1f30:	48 83 c4 20          	add    $0x20,%rsp
    1f34:	83 3d 2d 34 20 00 00 	cmpl   $0x0,0x20342d(%rip)        # 205368 <notify>
    1f3b:	0f 84 df 00 00 00    	je     2020 <notify_server+0x18b>
    1f41:	85 db                	test   %ebx,%ebx
    1f43:	0f 84 c6 00 00 00    	je     200f <notify_server+0x17a>
    1f49:	48 89 e1             	mov    %rsp,%rcx
    1f4c:	4c 8d 8c 24 00 20 00 	lea    0x2000(%rsp),%r9
    1f53:	00 
    1f54:	41 b8 00 00 00 00    	mov    $0x0,%r8d
    1f5a:	48 8b 15 c7 30 20 00 	mov    0x2030c7(%rip),%rdx        # 205028 <lab>
    1f61:	48 8b 35 c8 30 20 00 	mov    0x2030c8(%rip),%rsi        # 205030 <course>
    1f68:	48 8b 3d b1 30 20 00 	mov    0x2030b1(%rip),%rdi        # 205020 <user_id>
    1f6f:	e8 af 11 00 00       	callq  3123 <driver_post>
    1f74:	85 c0                	test   %eax,%eax
    1f76:	78 6f                	js     1fe7 <notify_server+0x152>
    1f78:	48 8d 3d a1 18 00 00 	lea    0x18a1(%rip),%rdi        # 3820 <_IO_stdin_used+0x5b0>
    1f7f:	e8 cc ef ff ff       	callq  f50 <puts@plt>
    1f84:	48 8d 3d 78 17 00 00 	lea    0x1778(%rip),%rdi        # 3703 <_IO_stdin_used+0x493>
    1f8b:	e8 c0 ef ff ff       	callq  f50 <puts@plt>
    1f90:	48 8b 84 24 08 40 00 	mov    0x4008(%rsp),%rax
    1f97:	00 
    1f98:	64 48 33 04 25 28 00 	xor    %fs:0x28,%rax
    1f9f:	00 00 
    1fa1:	0f 85 07 01 00 00    	jne    20ae <notify_server+0x219>
    1fa7:	48 81 c4 18 40 00 00 	add    $0x4018,%rsp
    1fae:	5b                   	pop    %rbx
    1faf:	5d                   	pop    %rbp
    1fb0:	c3                   	retq   
    1fb1:	48 8d 35 38 18 00 00 	lea    0x1838(%rip),%rsi        # 37f0 <_IO_stdin_used+0x580>
    1fb8:	bf 01 00 00 00       	mov    $0x1,%edi
    1fbd:	b8 00 00 00 00       	mov    $0x0,%eax
    1fc2:	e8 a9 f0 ff ff       	callq  1070 <__printf_chk@plt>
    1fc7:	bf 01 00 00 00       	mov    $0x1,%edi
    1fcc:	e8 ef f0 ff ff       	callq  10c0 <exit@plt>
    1fd1:	ba ff ff ff ff       	mov    $0xffffffff,%edx
    1fd6:	e9 13 ff ff ff       	jmpq   1eee <notify_server+0x59>
    1fdb:	48 8d 2d f4 16 00 00 	lea    0x16f4(%rip),%rbp        # 36d6 <_IO_stdin_used+0x466>
    1fe2:	e9 16 ff ff ff       	jmpq   1efd <notify_server+0x68>
    1fe7:	48 8d 94 24 00 20 00 	lea    0x2000(%rsp),%rdx
    1fee:	00 
    1fef:	48 8d 35 01 17 00 00 	lea    0x1701(%rip),%rsi        # 36f7 <_IO_stdin_used+0x487>
    1ff6:	bf 01 00 00 00       	mov    $0x1,%edi
    1ffb:	b8 00 00 00 00       	mov    $0x0,%eax
    2000:	e8 6b f0 ff ff       	callq  1070 <__printf_chk@plt>
    2005:	bf 01 00 00 00       	mov    $0x1,%edi
    200a:	e8 b1 f0 ff ff       	callq  10c0 <exit@plt>
    200f:	48 8d 3d f7 16 00 00 	lea    0x16f7(%rip),%rdi        # 370d <_IO_stdin_used+0x49d>
    2016:	e8 35 ef ff ff       	callq  f50 <puts@plt>
    201b:	e9 70 ff ff ff       	jmpq   1f90 <notify_server+0xfb>
    2020:	48 89 ea             	mov    %rbp,%rdx
    2023:	48 8d 35 2e 18 00 00 	lea    0x182e(%rip),%rsi        # 3858 <_IO_stdin_used+0x5e8>
    202a:	bf 01 00 00 00       	mov    $0x1,%edi
    202f:	b8 00 00 00 00       	mov    $0x0,%eax
    2034:	e8 37 f0 ff ff       	callq  1070 <__printf_chk@plt>
    2039:	48 8b 15 e0 2f 20 00 	mov    0x202fe0(%rip),%rdx        # 205020 <user_id>
    2040:	48 8d 35 cd 16 00 00 	lea    0x16cd(%rip),%rsi        # 3714 <_IO_stdin_used+0x4a4>
    2047:	bf 01 00 00 00       	mov    $0x1,%edi
    204c:	b8 00 00 00 00       	mov    $0x0,%eax
    2051:	e8 1a f0 ff ff       	callq  1070 <__printf_chk@plt>
    2056:	48 8b 15 d3 2f 20 00 	mov    0x202fd3(%rip),%rdx        # 205030 <course>
    205d:	48 8d 35 bd 16 00 00 	lea    0x16bd(%rip),%rsi        # 3721 <_IO_stdin_used+0x4b1>
    2064:	bf 01 00 00 00       	mov    $0x1,%edi
    2069:	b8 00 00 00 00       	mov    $0x0,%eax
    206e:	e8 fd ef ff ff       	callq  1070 <__printf_chk@plt>
    2073:	48 8b 15 ae 2f 20 00 	mov    0x202fae(%rip),%rdx        # 205028 <lab>
    207a:	48 8d 35 ac 16 00 00 	lea    0x16ac(%rip),%rsi        # 372d <_IO_stdin_used+0x4bd>
    2081:	bf 01 00 00 00       	mov    $0x1,%edi
    2086:	b8 00 00 00 00       	mov    $0x0,%eax
    208b:	e8 e0 ef ff ff       	callq  1070 <__printf_chk@plt>
    2090:	48 89 e2             	mov    %rsp,%rdx
    2093:	48 8d 35 9c 16 00 00 	lea    0x169c(%rip),%rsi        # 3736 <_IO_stdin_used+0x4c6>
    209a:	bf 01 00 00 00       	mov    $0x1,%edi
    209f:	b8 00 00 00 00       	mov    $0x0,%eax
    20a4:	e8 c7 ef ff ff       	callq  1070 <__printf_chk@plt>
    20a9:	e9 e2 fe ff ff       	jmpq   1f90 <notify_server+0xfb>
    20ae:	e8 bd ee ff ff       	callq  f70 <__stack_chk_fail@plt>

00000000000020b3 <validate>:
    20b3:	53                   	push   %rbx
    20b4:	89 fb                	mov    %edi,%ebx
    20b6:	83 3d 2b 33 20 00 00 	cmpl   $0x0,0x20332b(%rip)        # 2053e8 <is_checker>
    20bd:	74 72                	je     2131 <validate+0x7e>
    20bf:	39 3d 17 33 20 00    	cmp    %edi,0x203317(%rip)        # 2053dc <vlevel>
    20c5:	75 32                	jne    20f9 <validate+0x46>
    20c7:	8b 15 0b 33 20 00    	mov    0x20330b(%rip),%edx        # 2053d8 <check_level>
    20cd:	39 fa                	cmp    %edi,%edx
    20cf:	75 3e                	jne    210f <validate+0x5c>
    20d1:	0f be 15 30 3f 20 00 	movsbl 0x203f30(%rip),%edx        # 206008 <target_prefix>
    20d8:	4c 8d 05 21 33 20 00 	lea    0x203321(%rip),%r8        # 205400 <gets_buf>
    20df:	89 f9                	mov    %edi,%ecx
    20e1:	48 8d 35 78 16 00 00 	lea    0x1678(%rip),%rsi        # 3760 <_IO_stdin_used+0x4f0>
    20e8:	bf 01 00 00 00       	mov    $0x1,%edi
    20ed:	b8 00 00 00 00       	mov    $0x0,%eax
    20f2:	e8 79 ef ff ff       	callq  1070 <__printf_chk@plt>
    20f7:	5b                   	pop    %rbx
    20f8:	c3                   	retq   
    20f9:	48 8d 3d 42 16 00 00 	lea    0x1642(%rip),%rdi        # 3742 <_IO_stdin_used+0x4d2>
    2100:	e8 4b ee ff ff       	callq  f50 <puts@plt>
    2105:	b8 00 00 00 00       	mov    $0x0,%eax
    210a:	e8 fc fc ff ff       	callq  1e0b <check_fail>
    210f:	89 f9                	mov    %edi,%ecx
    2111:	48 8d 35 68 17 00 00 	lea    0x1768(%rip),%rsi        # 3880 <_IO_stdin_used+0x610>
    2118:	bf 01 00 00 00       	mov    $0x1,%edi
    211d:	b8 00 00 00 00       	mov    $0x0,%eax
    2122:	e8 49 ef ff ff       	callq  1070 <__printf_chk@plt>
    2127:	b8 00 00 00 00       	mov    $0x0,%eax
    212c:	e8 da fc ff ff       	callq  1e0b <check_fail>
    2131:	39 3d a5 32 20 00    	cmp    %edi,0x2032a5(%rip)        # 2053dc <vlevel>
    2137:	74 1a                	je     2153 <validate+0xa0>
    2139:	48 8d 3d 02 16 00 00 	lea    0x1602(%rip),%rdi        # 3742 <_IO_stdin_used+0x4d2>
    2140:	e8 0b ee ff ff       	callq  f50 <puts@plt>
    2145:	89 de                	mov    %ebx,%esi
    2147:	bf 00 00 00 00       	mov    $0x0,%edi
    214c:	e8 44 fd ff ff       	callq  1e95 <notify_server>
    2151:	eb a4                	jmp    20f7 <validate+0x44>
    2153:	0f be 0d ae 3e 20 00 	movsbl 0x203eae(%rip),%ecx        # 206008 <target_prefix>
    215a:	89 fa                	mov    %edi,%edx
    215c:	48 8d 35 45 17 00 00 	lea    0x1745(%rip),%rsi        # 38a8 <_IO_stdin_used+0x638>
    2163:	bf 01 00 00 00       	mov    $0x1,%edi
    2168:	b8 00 00 00 00       	mov    $0x0,%eax
    216d:	e8 fe ee ff ff       	callq  1070 <__printf_chk@plt>
    2172:	89 de                	mov    %ebx,%esi
    2174:	bf 01 00 00 00       	mov    $0x1,%edi
    2179:	e8 17 fd ff ff       	callq  1e95 <notify_server>
    217e:	e9 74 ff ff ff       	jmpq   20f7 <validate+0x44>

0000000000002183 <fail>:
    2183:	48 83 ec 08          	sub    $0x8,%rsp
    2187:	83 3d 5a 32 20 00 00 	cmpl   $0x0,0x20325a(%rip)        # 2053e8 <is_checker>
    218e:	75 11                	jne    21a1 <fail+0x1e>
    2190:	89 fe                	mov    %edi,%esi
    2192:	bf 00 00 00 00       	mov    $0x0,%edi
    2197:	e8 f9 fc ff ff       	callq  1e95 <notify_server>
    219c:	48 83 c4 08          	add    $0x8,%rsp
    21a0:	c3                   	retq   
    21a1:	b8 00 00 00 00       	mov    $0x0,%eax
    21a6:	e8 60 fc ff ff       	callq  1e0b <check_fail>

00000000000021ab <bushandler>:
    21ab:	48 83 ec 08          	sub    $0x8,%rsp
    21af:	83 3d 32 32 20 00 00 	cmpl   $0x0,0x203232(%rip)        # 2053e8 <is_checker>
    21b6:	74 16                	je     21ce <bushandler+0x23>
    21b8:	48 8d 3d b6 15 00 00 	lea    0x15b6(%rip),%rdi        # 3775 <_IO_stdin_used+0x505>
    21bf:	e8 8c ed ff ff       	callq  f50 <puts@plt>
    21c4:	b8 00 00 00 00       	mov    $0x0,%eax
    21c9:	e8 3d fc ff ff       	callq  1e0b <check_fail>
    21ce:	48 8d 3d 0b 17 00 00 	lea    0x170b(%rip),%rdi        # 38e0 <_IO_stdin_used+0x670>
    21d5:	e8 76 ed ff ff       	callq  f50 <puts@plt>
    21da:	48 8d 3d 9e 15 00 00 	lea    0x159e(%rip),%rdi        # 377f <_IO_stdin_used+0x50f>
    21e1:	e8 6a ed ff ff       	callq  f50 <puts@plt>
    21e6:	be 00 00 00 00       	mov    $0x0,%esi
    21eb:	bf 00 00 00 00       	mov    $0x0,%edi
    21f0:	e8 a0 fc ff ff       	callq  1e95 <notify_server>
    21f5:	bf 01 00 00 00       	mov    $0x1,%edi
    21fa:	e8 c1 ee ff ff       	callq  10c0 <exit@plt>

00000000000021ff <seghandler>:
    21ff:	48 83 ec 08          	sub    $0x8,%rsp
    2203:	83 3d de 31 20 00 00 	cmpl   $0x0,0x2031de(%rip)        # 2053e8 <is_checker>
    220a:	74 16                	je     2222 <seghandler+0x23>
    220c:	48 8d 3d 82 15 00 00 	lea    0x1582(%rip),%rdi        # 3795 <_IO_stdin_used+0x525>
    2213:	e8 38 ed ff ff       	callq  f50 <puts@plt>
    2218:	b8 00 00 00 00       	mov    $0x0,%eax
    221d:	e8 e9 fb ff ff       	callq  1e0b <check_fail>
    2222:	48 8d 3d d7 16 00 00 	lea    0x16d7(%rip),%rdi        # 3900 <_IO_stdin_used+0x690>
    2229:	e8 22 ed ff ff       	callq  f50 <puts@plt>
    222e:	48 8d 3d 4a 15 00 00 	lea    0x154a(%rip),%rdi        # 377f <_IO_stdin_used+0x50f>
    2235:	e8 16 ed ff ff       	callq  f50 <puts@plt>
    223a:	be 00 00 00 00       	mov    $0x0,%esi
    223f:	bf 00 00 00 00       	mov    $0x0,%edi
    2244:	e8 4c fc ff ff       	callq  1e95 <notify_server>
    2249:	bf 01 00 00 00       	mov    $0x1,%edi
    224e:	e8 6d ee ff ff       	callq  10c0 <exit@plt>

0000000000002253 <illegalhandler>:
    2253:	48 83 ec 08          	sub    $0x8,%rsp
    2257:	83 3d 8a 31 20 00 00 	cmpl   $0x0,0x20318a(%rip)        # 2053e8 <is_checker>
    225e:	74 16                	je     2276 <illegalhandler+0x23>
    2260:	48 8d 3d 41 15 00 00 	lea    0x1541(%rip),%rdi        # 37a8 <_IO_stdin_used+0x538>
    2267:	e8 e4 ec ff ff       	callq  f50 <puts@plt>
    226c:	b8 00 00 00 00       	mov    $0x0,%eax
    2271:	e8 95 fb ff ff       	callq  1e0b <check_fail>
    2276:	48 8d 3d ab 16 00 00 	lea    0x16ab(%rip),%rdi        # 3928 <_IO_stdin_used+0x6b8>
    227d:	e8 ce ec ff ff       	callq  f50 <puts@plt>
    2282:	48 8d 3d f6 14 00 00 	lea    0x14f6(%rip),%rdi        # 377f <_IO_stdin_used+0x50f>
    2289:	e8 c2 ec ff ff       	callq  f50 <puts@plt>
    228e:	be 00 00 00 00       	mov    $0x0,%esi
    2293:	bf 00 00 00 00       	mov    $0x0,%edi
    2298:	e8 f8 fb ff ff       	callq  1e95 <notify_server>
    229d:	bf 01 00 00 00       	mov    $0x1,%edi
    22a2:	e8 19 ee ff ff       	callq  10c0 <exit@plt>

00000000000022a7 <sigalrmhandler>:
    22a7:	48 83 ec 08          	sub    $0x8,%rsp
    22ab:	83 3d 36 31 20 00 00 	cmpl   $0x0,0x203136(%rip)        # 2053e8 <is_checker>
    22b2:	74 16                	je     22ca <sigalrmhandler+0x23>
    22b4:	48 8d 3d 01 15 00 00 	lea    0x1501(%rip),%rdi        # 37bc <_IO_stdin_used+0x54c>
    22bb:	e8 90 ec ff ff       	callq  f50 <puts@plt>
    22c0:	b8 00 00 00 00       	mov    $0x0,%eax
    22c5:	e8 41 fb ff ff       	callq  1e0b <check_fail>
    22ca:	ba 05 00 00 00       	mov    $0x5,%edx
    22cf:	48 8d 35 82 16 00 00 	lea    0x1682(%rip),%rsi        # 3958 <_IO_stdin_used+0x6e8>
    22d6:	bf 01 00 00 00       	mov    $0x1,%edi
    22db:	b8 00 00 00 00       	mov    $0x0,%eax
    22e0:	e8 8b ed ff ff       	callq  1070 <__printf_chk@plt>
    22e5:	be 00 00 00 00       	mov    $0x0,%esi
    22ea:	bf 00 00 00 00       	mov    $0x0,%edi
    22ef:	e8 a1 fb ff ff       	callq  1e95 <notify_server>
    22f4:	bf 01 00 00 00       	mov    $0x1,%edi
    22f9:	e8 c2 ed ff ff       	callq  10c0 <exit@plt>

00000000000022fe <launch>:
    22fe:	55                   	push   %rbp
    22ff:	48 89 e5             	mov    %rsp,%rbp
    2302:	48 83 ec 10          	sub    $0x10,%rsp
    2306:	48 89 fa             	mov    %rdi,%rdx
    2309:	64 48 8b 04 25 28 00 	mov    %fs:0x28,%rax
    2310:	00 00 
    2312:	48 89 45 f8          	mov    %rax,-0x8(%rbp)
    2316:	31 c0                	xor    %eax,%eax
    2318:	48 8d 47 1e          	lea    0x1e(%rdi),%rax
    231c:	48 83 e0 f0          	and    $0xfffffffffffffff0,%rax
    2320:	48 29 c4             	sub    %rax,%rsp
    2323:	48 8d 7c 24 0f       	lea    0xf(%rsp),%rdi
    2328:	48 83 e7 f0          	and    $0xfffffffffffffff0,%rdi
    232c:	be f4 00 00 00       	mov    $0xf4,%esi
    2331:	e8 5a ec ff ff       	callq  f90 <memset@plt>
    2336:	48 8b 05 43 30 20 00 	mov    0x203043(%rip),%rax        # 205380 <stdin@@GLIBC_2.2.5>
    233d:	48 39 05 8c 30 20 00 	cmp    %rax,0x20308c(%rip)        # 2053d0 <infile>
    2344:	74 3a                	je     2380 <launch+0x82>
    2346:	c7 05 8c 30 20 00 00 	movl   $0x0,0x20308c(%rip)        # 2053dc <vlevel>
    234d:	00 00 00 
    2350:	b8 00 00 00 00       	mov    $0x0,%eax
    2355:	e8 f9 f8 ff ff       	callq  1c53 <test>
    235a:	83 3d 87 30 20 00 00 	cmpl   $0x0,0x203087(%rip)        # 2053e8 <is_checker>
    2361:	75 35                	jne    2398 <launch+0x9a>
    2363:	48 8d 3d 72 14 00 00 	lea    0x1472(%rip),%rdi        # 37dc <_IO_stdin_used+0x56c>
    236a:	e8 e1 eb ff ff       	callq  f50 <puts@plt>
    236f:	48 8b 45 f8          	mov    -0x8(%rbp),%rax
    2373:	64 48 33 04 25 28 00 	xor    %fs:0x28,%rax
    237a:	00 00 
    237c:	75 30                	jne    23ae <launch+0xb0>
    237e:	c9                   	leaveq 
    237f:	c3                   	retq   
    2380:	48 8d 35 3d 14 00 00 	lea    0x143d(%rip),%rsi        # 37c4 <_IO_stdin_used+0x554>
    2387:	bf 01 00 00 00       	mov    $0x1,%edi
    238c:	b8 00 00 00 00       	mov    $0x0,%eax
    2391:	e8 da ec ff ff       	callq  1070 <__printf_chk@plt>
    2396:	eb ae                	jmp    2346 <launch+0x48>
    2398:	48 8d 3d 32 14 00 00 	lea    0x1432(%rip),%rdi        # 37d1 <_IO_stdin_used+0x561>
    239f:	e8 ac eb ff ff       	callq  f50 <puts@plt>
    23a4:	b8 00 00 00 00       	mov    $0x0,%eax
    23a9:	e8 5d fa ff ff       	callq  1e0b <check_fail>
    23ae:	e8 bd eb ff ff       	callq  f70 <__stack_chk_fail@plt>

00000000000023b3 <stable_launch>:
    23b3:	53                   	push   %rbx
    23b4:	48 89 3d 0d 30 20 00 	mov    %rdi,0x20300d(%rip)        # 2053c8 <global_offset>
    23bb:	41 b9 00 00 00 00    	mov    $0x0,%r9d
    23c1:	41 b8 00 00 00 00    	mov    $0x0,%r8d
    23c7:	b9 32 01 00 00       	mov    $0x132,%ecx
    23cc:	ba 07 00 00 00       	mov    $0x7,%edx
    23d1:	be 00 00 10 00       	mov    $0x100000,%esi
    23d6:	bf 00 60 58 55       	mov    $0x55586000,%edi
    23db:	e8 a0 eb ff ff       	callq  f80 <mmap@plt>
    23e0:	48 89 c3             	mov    %rax,%rbx
    23e3:	48 3d 00 60 58 55    	cmp    $0x55586000,%rax
    23e9:	75 43                	jne    242e <stable_launch+0x7b>
    23eb:	48 8d 90 f8 ff 0f 00 	lea    0xffff8(%rax),%rdx
    23f2:	48 89 15 17 3c 20 00 	mov    %rdx,0x203c17(%rip)        # 206010 <stack_top>
    23f9:	48 89 e0             	mov    %rsp,%rax
    23fc:	48 89 d4             	mov    %rdx,%rsp
    23ff:	48 89 c2             	mov    %rax,%rdx
    2402:	48 89 15 b7 2f 20 00 	mov    %rdx,0x202fb7(%rip)        # 2053c0 <global_save_stack>
    2409:	48 8b 3d b8 2f 20 00 	mov    0x202fb8(%rip),%rdi        # 2053c8 <global_offset>
    2410:	e8 e9 fe ff ff       	callq  22fe <launch>
    2415:	48 8b 05 a4 2f 20 00 	mov    0x202fa4(%rip),%rax        # 2053c0 <global_save_stack>
    241c:	48 89 c4             	mov    %rax,%rsp
    241f:	be 00 00 10 00       	mov    $0x100000,%esi
    2424:	48 89 df             	mov    %rbx,%rdi
    2427:	e8 34 ec ff ff       	callq  1060 <munmap@plt>
    242c:	5b                   	pop    %rbx
    242d:	c3                   	retq   
    242e:	be 00 00 10 00       	mov    $0x100000,%esi
    2433:	48 89 c7             	mov    %rax,%rdi
    2436:	e8 25 ec ff ff       	callq  1060 <munmap@plt>
    243b:	b9 00 60 58 55       	mov    $0x55586000,%ecx
    2440:	48 8d 15 49 15 00 00 	lea    0x1549(%rip),%rdx        # 3990 <_IO_stdin_used+0x720>
    2447:	be 01 00 00 00       	mov    $0x1,%esi
    244c:	48 8b 3d 4d 2f 20 00 	mov    0x202f4d(%rip),%rdi        # 2053a0 <stderr@@GLIBC_2.2.5>
    2453:	b8 00 00 00 00       	mov    $0x0,%eax
    2458:	e8 83 ec ff ff       	callq  10e0 <__fprintf_chk@plt>
    245d:	bf 01 00 00 00       	mov    $0x1,%edi
    2462:	e8 59 ec ff ff       	callq  10c0 <exit@plt>

0000000000002467 <rio_readinitb>:
    2467:	89 37                	mov    %esi,(%rdi)
    2469:	c7 47 04 00 00 00 00 	movl   $0x0,0x4(%rdi)
    2470:	48 8d 47 10          	lea    0x10(%rdi),%rax
    2474:	48 89 47 08          	mov    %rax,0x8(%rdi)
    2478:	c3                   	retq   

0000000000002479 <sigalrm_handler>:
    2479:	48 83 ec 08          	sub    $0x8,%rsp
    247d:	b9 00 00 00 00       	mov    $0x0,%ecx
    2482:	48 8d 15 47 15 00 00 	lea    0x1547(%rip),%rdx        # 39d0 <trans_char+0x10>
    2489:	be 01 00 00 00       	mov    $0x1,%esi
    248e:	48 8b 3d 0b 2f 20 00 	mov    0x202f0b(%rip),%rdi        # 2053a0 <stderr@@GLIBC_2.2.5>
    2495:	b8 00 00 00 00       	mov    $0x0,%eax
    249a:	e8 41 ec ff ff       	callq  10e0 <__fprintf_chk@plt>
    249f:	bf 01 00 00 00       	mov    $0x1,%edi
    24a4:	e8 17 ec ff ff       	callq  10c0 <exit@plt>

00000000000024a9 <rio_writen>:
    24a9:	41 55                	push   %r13
    24ab:	41 54                	push   %r12
    24ad:	55                   	push   %rbp
    24ae:	53                   	push   %rbx
    24af:	48 83 ec 08          	sub    $0x8,%rsp
    24b3:	41 89 fc             	mov    %edi,%r12d
    24b6:	48 89 f5             	mov    %rsi,%rbp
    24b9:	49 89 d5             	mov    %rdx,%r13
    24bc:	48 89 d3             	mov    %rdx,%rbx
    24bf:	eb 06                	jmp    24c7 <rio_writen+0x1e>
    24c1:	48 29 c3             	sub    %rax,%rbx
    24c4:	48 01 c5             	add    %rax,%rbp
    24c7:	48 85 db             	test   %rbx,%rbx
    24ca:	74 24                	je     24f0 <rio_writen+0x47>
    24cc:	48 89 da             	mov    %rbx,%rdx
    24cf:	48 89 ee             	mov    %rbp,%rsi
    24d2:	44 89 e7             	mov    %r12d,%edi
    24d5:	e8 86 ea ff ff       	callq  f60 <write@plt>
    24da:	48 85 c0             	test   %rax,%rax
    24dd:	7f e2                	jg     24c1 <rio_writen+0x18>
    24df:	e8 2c ea ff ff       	callq  f10 <__errno_location@plt>
    24e4:	83 38 04             	cmpl   $0x4,(%rax)
    24e7:	75 15                	jne    24fe <rio_writen+0x55>
    24e9:	b8 00 00 00 00       	mov    $0x0,%eax
    24ee:	eb d1                	jmp    24c1 <rio_writen+0x18>
    24f0:	4c 89 e8             	mov    %r13,%rax
    24f3:	48 83 c4 08          	add    $0x8,%rsp
    24f7:	5b                   	pop    %rbx
    24f8:	5d                   	pop    %rbp
    24f9:	41 5c                	pop    %r12
    24fb:	41 5d                	pop    %r13
    24fd:	c3                   	retq   
    24fe:	48 c7 c0 ff ff ff ff 	mov    $0xffffffffffffffff,%rax
    2505:	eb ec                	jmp    24f3 <rio_writen+0x4a>

0000000000002507 <rio_read>:
    2507:	41 55                	push   %r13
    2509:	41 54                	push   %r12
    250b:	55                   	push   %rbp
    250c:	53                   	push   %rbx
    250d:	48 83 ec 08          	sub    $0x8,%rsp
    2511:	48 89 fb             	mov    %rdi,%rbx
    2514:	49 89 f5             	mov    %rsi,%r13
    2517:	49 89 d4             	mov    %rdx,%r12
    251a:	eb 0a                	jmp    2526 <rio_read+0x1f>
    251c:	e8 ef e9 ff ff       	callq  f10 <__errno_location@plt>
    2521:	83 38 04             	cmpl   $0x4,(%rax)
    2524:	75 5c                	jne    2582 <rio_read+0x7b>
    2526:	8b 6b 04             	mov    0x4(%rbx),%ebp
    2529:	85 ed                	test   %ebp,%ebp
    252b:	7f 24                	jg     2551 <rio_read+0x4a>
    252d:	48 8d 6b 10          	lea    0x10(%rbx),%rbp
    2531:	8b 3b                	mov    (%rbx),%edi
    2533:	ba 00 20 00 00       	mov    $0x2000,%edx
    2538:	48 89 ee             	mov    %rbp,%rsi
    253b:	e8 80 ea ff ff       	callq  fc0 <read@plt>
    2540:	89 43 04             	mov    %eax,0x4(%rbx)
    2543:	85 c0                	test   %eax,%eax
    2545:	78 d5                	js     251c <rio_read+0x15>
    2547:	85 c0                	test   %eax,%eax
    2549:	74 40                	je     258b <rio_read+0x84>
    254b:	48 89 6b 08          	mov    %rbp,0x8(%rbx)
    254f:	eb d5                	jmp    2526 <rio_read+0x1f>
    2551:	89 e8                	mov    %ebp,%eax
    2553:	4c 39 e0             	cmp    %r12,%rax
    2556:	72 03                	jb     255b <rio_read+0x54>
    2558:	44 89 e5             	mov    %r12d,%ebp
    255b:	4c 63 e5             	movslq %ebp,%r12
    255e:	48 8b 73 08          	mov    0x8(%rbx),%rsi
    2562:	4c 89 e2             	mov    %r12,%rdx
    2565:	4c 89 ef             	mov    %r13,%rdi
    2568:	e8 a3 ea ff ff       	callq  1010 <memcpy@plt>
    256d:	4c 01 63 08          	add    %r12,0x8(%rbx)
    2571:	29 6b 04             	sub    %ebp,0x4(%rbx)
    2574:	4c 89 e0             	mov    %r12,%rax
    2577:	48 83 c4 08          	add    $0x8,%rsp
    257b:	5b                   	pop    %rbx
    257c:	5d                   	pop    %rbp
    257d:	41 5c                	pop    %r12
    257f:	41 5d                	pop    %r13
    2581:	c3                   	retq   
    2582:	48 c7 c0 ff ff ff ff 	mov    $0xffffffffffffffff,%rax
    2589:	eb ec                	jmp    2577 <rio_read+0x70>
    258b:	b8 00 00 00 00       	mov    $0x0,%eax
    2590:	eb e5                	jmp    2577 <rio_read+0x70>

0000000000002592 <rio_readlineb>:
    2592:	41 55                	push   %r13
    2594:	41 54                	push   %r12
    2596:	55                   	push   %rbp
    2597:	53                   	push   %rbx
    2598:	48 83 ec 18          	sub    $0x18,%rsp
    259c:	49 89 fd             	mov    %rdi,%r13
    259f:	48 89 f5             	mov    %rsi,%rbp
    25a2:	49 89 d4             	mov    %rdx,%r12
    25a5:	64 48 8b 04 25 28 00 	mov    %fs:0x28,%rax
    25ac:	00 00 
    25ae:	48 89 44 24 08       	mov    %rax,0x8(%rsp)
    25b3:	31 c0                	xor    %eax,%eax
    25b5:	bb 01 00 00 00       	mov    $0x1,%ebx
    25ba:	4c 39 e3             	cmp    %r12,%rbx
    25bd:	73 47                	jae    2606 <rio_readlineb+0x74>
    25bf:	48 8d 74 24 07       	lea    0x7(%rsp),%rsi
    25c4:	ba 01 00 00 00       	mov    $0x1,%edx
    25c9:	4c 89 ef             	mov    %r13,%rdi
    25cc:	e8 36 ff ff ff       	callq  2507 <rio_read>
    25d1:	83 f8 01             	cmp    $0x1,%eax
    25d4:	75 1c                	jne    25f2 <rio_readlineb+0x60>
    25d6:	48 8d 45 01          	lea    0x1(%rbp),%rax
    25da:	0f b6 54 24 07       	movzbl 0x7(%rsp),%edx
    25df:	88 55 00             	mov    %dl,0x0(%rbp)
    25e2:	80 7c 24 07 0a       	cmpb   $0xa,0x7(%rsp)
    25e7:	74 1a                	je     2603 <rio_readlineb+0x71>
    25e9:	48 83 c3 01          	add    $0x1,%rbx
    25ed:	48 89 c5             	mov    %rax,%rbp
    25f0:	eb c8                	jmp    25ba <rio_readlineb+0x28>
    25f2:	85 c0                	test   %eax,%eax
    25f4:	75 32                	jne    2628 <rio_readlineb+0x96>
    25f6:	48 83 fb 01          	cmp    $0x1,%rbx
    25fa:	75 0a                	jne    2606 <rio_readlineb+0x74>
    25fc:	b8 00 00 00 00       	mov    $0x0,%eax
    2601:	eb 0a                	jmp    260d <rio_readlineb+0x7b>
    2603:	48 89 c5             	mov    %rax,%rbp
    2606:	c6 45 00 00          	movb   $0x0,0x0(%rbp)
    260a:	48 89 d8             	mov    %rbx,%rax
    260d:	48 8b 4c 24 08       	mov    0x8(%rsp),%rcx
    2612:	64 48 33 0c 25 28 00 	xor    %fs:0x28,%rcx
    2619:	00 00 
    261b:	75 14                	jne    2631 <rio_readlineb+0x9f>
    261d:	48 83 c4 18          	add    $0x18,%rsp
    2621:	5b                   	pop    %rbx
    2622:	5d                   	pop    %rbp
    2623:	41 5c                	pop    %r12
    2625:	41 5d                	pop    %r13
    2627:	c3                   	retq   
    2628:	48 c7 c0 ff ff ff ff 	mov    $0xffffffffffffffff,%rax
    262f:	eb dc                	jmp    260d <rio_readlineb+0x7b>
    2631:	e8 3a e9 ff ff       	callq  f70 <__stack_chk_fail@plt>

0000000000002636 <urlencode>:
    2636:	41 54                	push   %r12
    2638:	55                   	push   %rbp
    2639:	53                   	push   %rbx
    263a:	48 83 ec 10          	sub    $0x10,%rsp
    263e:	48 89 fb             	mov    %rdi,%rbx
    2641:	48 89 f5             	mov    %rsi,%rbp
    2644:	64 48 8b 04 25 28 00 	mov    %fs:0x28,%rax
    264b:	00 00 
    264d:	48 89 44 24 08       	mov    %rax,0x8(%rsp)
    2652:	31 c0                	xor    %eax,%eax
    2654:	48 c7 c1 ff ff ff ff 	mov    $0xffffffffffffffff,%rcx
    265b:	f2 ae                	repnz scas %es:(%rdi),%al
    265d:	48 89 ce             	mov    %rcx,%rsi
    2660:	48 f7 d6             	not    %rsi
    2663:	8d 46 ff             	lea    -0x1(%rsi),%eax
    2666:	eb 0f                	jmp    2677 <urlencode+0x41>
    2668:	44 88 45 00          	mov    %r8b,0x0(%rbp)
    266c:	48 8d 6d 01          	lea    0x1(%rbp),%rbp
    2670:	48 83 c3 01          	add    $0x1,%rbx
    2674:	44 89 e0             	mov    %r12d,%eax
    2677:	44 8d 60 ff          	lea    -0x1(%rax),%r12d
    267b:	85 c0                	test   %eax,%eax
    267d:	0f 84 a8 00 00 00    	je     272b <urlencode+0xf5>
    2683:	44 0f b6 03          	movzbl (%rbx),%r8d
    2687:	41 80 f8 2a          	cmp    $0x2a,%r8b
    268b:	0f 94 c2             	sete   %dl
    268e:	41 80 f8 2d          	cmp    $0x2d,%r8b
    2692:	0f 94 c0             	sete   %al
    2695:	08 c2                	or     %al,%dl
    2697:	75 cf                	jne    2668 <urlencode+0x32>
    2699:	41 80 f8 2e          	cmp    $0x2e,%r8b
    269d:	74 c9                	je     2668 <urlencode+0x32>
    269f:	41 80 f8 5f          	cmp    $0x5f,%r8b
    26a3:	74 c3                	je     2668 <urlencode+0x32>
    26a5:	41 8d 40 d0          	lea    -0x30(%r8),%eax
    26a9:	3c 09                	cmp    $0x9,%al
    26ab:	76 bb                	jbe    2668 <urlencode+0x32>
    26ad:	41 8d 40 bf          	lea    -0x41(%r8),%eax
    26b1:	3c 19                	cmp    $0x19,%al
    26b3:	76 b3                	jbe    2668 <urlencode+0x32>
    26b5:	41 8d 40 9f          	lea    -0x61(%r8),%eax
    26b9:	3c 19                	cmp    $0x19,%al
    26bb:	76 ab                	jbe    2668 <urlencode+0x32>
    26bd:	41 80 f8 20          	cmp    $0x20,%r8b
    26c1:	74 56                	je     2719 <urlencode+0xe3>
    26c3:	41 8d 40 e0          	lea    -0x20(%r8),%eax
    26c7:	3c 5f                	cmp    $0x5f,%al
    26c9:	0f 96 c2             	setbe  %dl
    26cc:	41 80 f8 09          	cmp    $0x9,%r8b
    26d0:	0f 94 c0             	sete   %al
    26d3:	08 c2                	or     %al,%dl
    26d5:	74 4f                	je     2726 <urlencode+0xf0>
    26d7:	48 89 e7             	mov    %rsp,%rdi
    26da:	45 0f b6 c0          	movzbl %r8b,%r8d
    26de:	48 8d 0d 83 13 00 00 	lea    0x1383(%rip),%rcx        # 3a68 <trans_char+0xa8>
    26e5:	ba 08 00 00 00       	mov    $0x8,%edx
    26ea:	be 01 00 00 00       	mov    $0x1,%esi
    26ef:	b8 00 00 00 00       	mov    $0x0,%eax
    26f4:	e8 f7 e9 ff ff       	callq  10f0 <__sprintf_chk@plt>
    26f9:	0f b6 04 24          	movzbl (%rsp),%eax
    26fd:	88 45 00             	mov    %al,0x0(%rbp)
    2700:	0f b6 44 24 01       	movzbl 0x1(%rsp),%eax
    2705:	88 45 01             	mov    %al,0x1(%rbp)
    2708:	0f b6 44 24 02       	movzbl 0x2(%rsp),%eax
    270d:	88 45 02             	mov    %al,0x2(%rbp)
    2710:	48 8d 6d 03          	lea    0x3(%rbp),%rbp
    2714:	e9 57 ff ff ff       	jmpq   2670 <urlencode+0x3a>
    2719:	c6 45 00 2b          	movb   $0x2b,0x0(%rbp)
    271d:	48 8d 6d 01          	lea    0x1(%rbp),%rbp
    2721:	e9 4a ff ff ff       	jmpq   2670 <urlencode+0x3a>
    2726:	b8 ff ff ff ff       	mov    $0xffffffff,%eax
    272b:	48 8b 74 24 08       	mov    0x8(%rsp),%rsi
    2730:	64 48 33 34 25 28 00 	xor    %fs:0x28,%rsi
    2737:	00 00 
    2739:	75 09                	jne    2744 <urlencode+0x10e>
    273b:	48 83 c4 10          	add    $0x10,%rsp
    273f:	5b                   	pop    %rbx
    2740:	5d                   	pop    %rbp
    2741:	41 5c                	pop    %r12
    2743:	c3                   	retq   
    2744:	e8 27 e8 ff ff       	callq  f70 <__stack_chk_fail@plt>

0000000000002749 <submitr>:
    2749:	41 57                	push   %r15
    274b:	41 56                	push   %r14
    274d:	41 55                	push   %r13
    274f:	41 54                	push   %r12
    2751:	55                   	push   %rbp
    2752:	53                   	push   %rbx
    2753:	48 81 ec 68 a0 00 00 	sub    $0xa068,%rsp
    275a:	49 89 fd             	mov    %rdi,%r13
    275d:	89 74 24 14          	mov    %esi,0x14(%rsp)
    2761:	49 89 d7             	mov    %rdx,%r15
    2764:	48 89 4c 24 08       	mov    %rcx,0x8(%rsp)
    2769:	4c 89 44 24 18       	mov    %r8,0x18(%rsp)
    276e:	4d 89 ce             	mov    %r9,%r14
    2771:	48 8b ac 24 a0 a0 00 	mov    0xa0a0(%rsp),%rbp
    2778:	00 
    2779:	64 48 8b 04 25 28 00 	mov    %fs:0x28,%rax
    2780:	00 00 
    2782:	48 89 84 24 58 a0 00 	mov    %rax,0xa058(%rsp)
    2789:	00 
    278a:	31 c0                	xor    %eax,%eax
    278c:	c7 44 24 2c 00 00 00 	movl   $0x0,0x2c(%rsp)
    2793:	00 
    2794:	ba 00 00 00 00       	mov    $0x0,%edx
    2799:	be 01 00 00 00       	mov    $0x1,%esi
    279e:	bf 02 00 00 00       	mov    $0x2,%edi
    27a3:	e8 58 e9 ff ff       	callq  1100 <socket@plt>
    27a8:	85 c0                	test   %eax,%eax
    27aa:	0f 88 a9 02 00 00    	js     2a59 <submitr+0x310>
    27b0:	89 c3                	mov    %eax,%ebx
    27b2:	4c 89 ef             	mov    %r13,%rdi
    27b5:	e8 26 e8 ff ff       	callq  fe0 <gethostbyname@plt>
    27ba:	48 85 c0             	test   %rax,%rax
    27bd:	0f 84 e2 02 00 00    	je     2aa5 <submitr+0x35c>
    27c3:	4c 8d 64 24 30       	lea    0x30(%rsp),%r12
    27c8:	48 c7 44 24 32 00 00 	movq   $0x0,0x32(%rsp)
    27cf:	00 00 
    27d1:	c7 44 24 3a 00 00 00 	movl   $0x0,0x3a(%rsp)
    27d8:	00 
    27d9:	66 c7 44 24 3e 00 00 	movw   $0x0,0x3e(%rsp)
    27e0:	66 c7 44 24 30 02 00 	movw   $0x2,0x30(%rsp)
    27e7:	48 63 50 14          	movslq 0x14(%rax),%rdx
    27eb:	48 8b 40 18          	mov    0x18(%rax),%rax
    27ef:	48 8b 30             	mov    (%rax),%rsi
    27f2:	48 8d 7c 24 34       	lea    0x34(%rsp),%rdi
    27f7:	b9 0c 00 00 00       	mov    $0xc,%ecx
    27fc:	e8 ef e7 ff ff       	callq  ff0 <__memmove_chk@plt>
    2801:	0f b7 44 24 14       	movzwl 0x14(%rsp),%eax
    2806:	66 c1 c8 08          	ror    $0x8,%ax
    280a:	66 89 44 24 32       	mov    %ax,0x32(%rsp)
    280f:	ba 10 00 00 00       	mov    $0x10,%edx
    2814:	4c 89 e6             	mov    %r12,%rsi
    2817:	89 df                	mov    %ebx,%edi
    2819:	e8 b2 e8 ff ff       	callq  10d0 <connect@plt>
    281e:	85 c0                	test   %eax,%eax
    2820:	0f 88 e7 02 00 00    	js     2b0d <submitr+0x3c4>
    2826:	48 c7 c6 ff ff ff ff 	mov    $0xffffffffffffffff,%rsi
    282d:	b8 00 00 00 00       	mov    $0x0,%eax
    2832:	48 89 f1             	mov    %rsi,%rcx
    2835:	4c 89 f7             	mov    %r14,%rdi
    2838:	f2 ae                	repnz scas %es:(%rdi),%al
    283a:	48 89 ca             	mov    %rcx,%rdx
    283d:	48 f7 d2             	not    %rdx
    2840:	48 89 f1             	mov    %rsi,%rcx
    2843:	4c 89 ff             	mov    %r15,%rdi
    2846:	f2 ae                	repnz scas %es:(%rdi),%al
    2848:	48 f7 d1             	not    %rcx
    284b:	49 89 c8             	mov    %rcx,%r8
    284e:	48 89 f1             	mov    %rsi,%rcx
    2851:	48 8b 7c 24 08       	mov    0x8(%rsp),%rdi
    2856:	f2 ae                	repnz scas %es:(%rdi),%al
    2858:	48 f7 d1             	not    %rcx
    285b:	4d 8d 44 08 fe       	lea    -0x2(%r8,%rcx,1),%r8
    2860:	48 89 f1             	mov    %rsi,%rcx
    2863:	48 8b 7c 24 18       	mov    0x18(%rsp),%rdi
    2868:	f2 ae                	repnz scas %es:(%rdi),%al
    286a:	48 89 c8             	mov    %rcx,%rax
    286d:	48 f7 d0             	not    %rax
    2870:	49 8d 4c 00 ff       	lea    -0x1(%r8,%rax,1),%rcx
    2875:	48 8d 44 52 fd       	lea    -0x3(%rdx,%rdx,2),%rax
    287a:	48 8d 84 01 80 00 00 	lea    0x80(%rcx,%rax,1),%rax
    2881:	00 
    2882:	48 3d 00 20 00 00    	cmp    $0x2000,%rax
    2888:	0f 87 d9 02 00 00    	ja     2b67 <submitr+0x41e>
    288e:	48 8d b4 24 50 40 00 	lea    0x4050(%rsp),%rsi
    2895:	00 
    2896:	b9 00 04 00 00       	mov    $0x400,%ecx
    289b:	b8 00 00 00 00       	mov    $0x0,%eax
    28a0:	48 89 f7             	mov    %rsi,%rdi
    28a3:	f3 48 ab             	rep stos %rax,%es:(%rdi)
    28a6:	4c 89 f7             	mov    %r14,%rdi
    28a9:	e8 88 fd ff ff       	callq  2636 <urlencode>
    28ae:	85 c0                	test   %eax,%eax
    28b0:	0f 88 24 03 00 00    	js     2bda <submitr+0x491>
    28b6:	4c 8d a4 24 50 20 00 	lea    0x2050(%rsp),%r12
    28bd:	00 
    28be:	41 55                	push   %r13
    28c0:	48 8d 84 24 58 40 00 	lea    0x4058(%rsp),%rax
    28c7:	00 
    28c8:	50                   	push   %rax
    28c9:	4d 89 f9             	mov    %r15,%r9
    28cc:	4c 8b 44 24 18       	mov    0x18(%rsp),%r8
    28d1:	48 8d 0d 20 11 00 00 	lea    0x1120(%rip),%rcx        # 39f8 <trans_char+0x38>
    28d8:	ba 00 20 00 00       	mov    $0x2000,%edx
    28dd:	be 01 00 00 00       	mov    $0x1,%esi
    28e2:	4c 89 e7             	mov    %r12,%rdi
    28e5:	b8 00 00 00 00       	mov    $0x0,%eax
    28ea:	e8 01 e8 ff ff       	callq  10f0 <__sprintf_chk@plt>
    28ef:	48 c7 c1 ff ff ff ff 	mov    $0xffffffffffffffff,%rcx
    28f6:	b8 00 00 00 00       	mov    $0x0,%eax
    28fb:	4c 89 e7             	mov    %r12,%rdi
    28fe:	f2 ae                	repnz scas %es:(%rdi),%al
    2900:	48 89 ca             	mov    %rcx,%rdx
    2903:	48 f7 d2             	not    %rdx
    2906:	48 8d 52 ff          	lea    -0x1(%rdx),%rdx
    290a:	4c 89 e6             	mov    %r12,%rsi
    290d:	89 df                	mov    %ebx,%edi
    290f:	e8 95 fb ff ff       	callq  24a9 <rio_writen>
    2914:	48 83 c4 10          	add    $0x10,%rsp
    2918:	48 85 c0             	test   %rax,%rax
    291b:	0f 88 44 03 00 00    	js     2c65 <submitr+0x51c>
    2921:	4c 8d 64 24 40       	lea    0x40(%rsp),%r12
    2926:	89 de                	mov    %ebx,%esi
    2928:	4c 89 e7             	mov    %r12,%rdi
    292b:	e8 37 fb ff ff       	callq  2467 <rio_readinitb>
    2930:	48 8d b4 24 50 20 00 	lea    0x2050(%rsp),%rsi
    2937:	00 
    2938:	ba 00 20 00 00       	mov    $0x2000,%edx
    293d:	4c 89 e7             	mov    %r12,%rdi
    2940:	e8 4d fc ff ff       	callq  2592 <rio_readlineb>
    2945:	48 85 c0             	test   %rax,%rax
    2948:	0f 8e 86 03 00 00    	jle    2cd4 <submitr+0x58b>
    294e:	48 8d 4c 24 2c       	lea    0x2c(%rsp),%rcx
    2953:	48 8d 94 24 50 60 00 	lea    0x6050(%rsp),%rdx
    295a:	00 
    295b:	48 8d bc 24 50 20 00 	lea    0x2050(%rsp),%rdi
    2962:	00 
    2963:	4c 8d 84 24 50 80 00 	lea    0x8050(%rsp),%r8
    296a:	00 
    296b:	48 8d 35 fd 10 00 00 	lea    0x10fd(%rip),%rsi        # 3a6f <trans_char+0xaf>
    2972:	b8 00 00 00 00       	mov    $0x0,%eax
    2977:	e8 d4 e6 ff ff       	callq  1050 <__isoc99_sscanf@plt>
    297c:	48 8d b4 24 50 20 00 	lea    0x2050(%rsp),%rsi
    2983:	00 
    2984:	b9 03 00 00 00       	mov    $0x3,%ecx
    2989:	48 8d 3d f6 10 00 00 	lea    0x10f6(%rip),%rdi        # 3a86 <trans_char+0xc6>
    2990:	f3 a6                	repz cmpsb %es:(%rdi),%ds:(%rsi)
    2992:	0f 97 c0             	seta   %al
    2995:	1c 00                	sbb    $0x0,%al
    2997:	84 c0                	test   %al,%al
    2999:	0f 84 b3 03 00 00    	je     2d52 <submitr+0x609>
    299f:	48 8d b4 24 50 20 00 	lea    0x2050(%rsp),%rsi
    29a6:	00 
    29a7:	48 8d 7c 24 40       	lea    0x40(%rsp),%rdi
    29ac:	ba 00 20 00 00       	mov    $0x2000,%edx
    29b1:	e8 dc fb ff ff       	callq  2592 <rio_readlineb>
    29b6:	48 85 c0             	test   %rax,%rax
    29b9:	7f c1                	jg     297c <submitr+0x233>
    29bb:	48 b8 45 72 72 6f 72 	movabs $0x43203a726f727245,%rax
    29c2:	3a 20 43 
    29c5:	48 ba 6c 69 65 6e 74 	movabs $0x6e7520746e65696c,%rdx
    29cc:	20 75 6e 
    29cf:	48 89 45 00          	mov    %rax,0x0(%rbp)
    29d3:	48 89 55 08          	mov    %rdx,0x8(%rbp)
    29d7:	48 b8 61 62 6c 65 20 	movabs $0x206f7420656c6261,%rax
    29de:	74 6f 20 
    29e1:	48 ba 72 65 61 64 20 	movabs $0x6165682064616572,%rdx
    29e8:	68 65 61 
    29eb:	48 89 45 10          	mov    %rax,0x10(%rbp)
    29ef:	48 89 55 18          	mov    %rdx,0x18(%rbp)
    29f3:	48 b8 64 65 72 73 20 	movabs $0x6f72662073726564,%rax
    29fa:	66 72 6f 
    29fd:	48 ba 6d 20 74 68 65 	movabs $0x657220656874206d,%rdx
    2a04:	20 72 65 
    2a07:	48 89 45 20          	mov    %rax,0x20(%rbp)
    2a0b:	48 89 55 28          	mov    %rdx,0x28(%rbp)
    2a0f:	48 b8 73 75 6c 74 20 	movabs $0x72657320746c7573,%rax
    2a16:	73 65 72 
    2a19:	48 89 45 30          	mov    %rax,0x30(%rbp)
    2a1d:	c7 45 38 76 65 72 00 	movl   $0x726576,0x38(%rbp)
    2a24:	89 df                	mov    %ebx,%edi
    2a26:	e8 85 e5 ff ff       	callq  fb0 <close@plt>
    2a2b:	b8 ff ff ff ff       	mov    $0xffffffff,%eax
    2a30:	48 8b 9c 24 58 a0 00 	mov    0xa058(%rsp),%rbx
    2a37:	00 
    2a38:	64 48 33 1c 25 28 00 	xor    %fs:0x28,%rbx
    2a3f:	00 00 
    2a41:	0f 85 7e 04 00 00    	jne    2ec5 <submitr+0x77c>
    2a47:	48 81 c4 68 a0 00 00 	add    $0xa068,%rsp
    2a4e:	5b                   	pop    %rbx
    2a4f:	5d                   	pop    %rbp
    2a50:	41 5c                	pop    %r12
    2a52:	41 5d                	pop    %r13
    2a54:	41 5e                	pop    %r14
    2a56:	41 5f                	pop    %r15
    2a58:	c3                   	retq   
    2a59:	48 b8 45 72 72 6f 72 	movabs $0x43203a726f727245,%rax
    2a60:	3a 20 43 
    2a63:	48 ba 6c 69 65 6e 74 	movabs $0x6e7520746e65696c,%rdx
    2a6a:	20 75 6e 
    2a6d:	48 89 45 00          	mov    %rax,0x0(%rbp)
    2a71:	48 89 55 08          	mov    %rdx,0x8(%rbp)
    2a75:	48 b8 61 62 6c 65 20 	movabs $0x206f7420656c6261,%rax
    2a7c:	74 6f 20 
    2a7f:	48 ba 63 72 65 61 74 	movabs $0x7320657461657263,%rdx
    2a86:	65 20 73 
    2a89:	48 89 45 10          	mov    %rax,0x10(%rbp)
    2a8d:	48 89 55 18          	mov    %rdx,0x18(%rbp)
    2a91:	c7 45 20 6f 63 6b 65 	movl   $0x656b636f,0x20(%rbp)
    2a98:	66 c7 45 24 74 00    	movw   $0x74,0x24(%rbp)
    2a9e:	b8 ff ff ff ff       	mov    $0xffffffff,%eax
    2aa3:	eb 8b                	jmp    2a30 <submitr+0x2e7>
    2aa5:	48 b8 45 72 72 6f 72 	movabs $0x44203a726f727245,%rax
    2aac:	3a 20 44 
    2aaf:	48 ba 4e 53 20 69 73 	movabs $0x6e7520736920534e,%rdx
    2ab6:	20 75 6e 
    2ab9:	48 89 45 00          	mov    %rax,0x0(%rbp)
    2abd:	48 89 55 08          	mov    %rdx,0x8(%rbp)
    2ac1:	48 b8 61 62 6c 65 20 	movabs $0x206f7420656c6261,%rax
    2ac8:	74 6f 20 
    2acb:	48 ba 72 65 73 6f 6c 	movabs $0x2065766c6f736572,%rdx
    2ad2:	76 65 20 
    2ad5:	48 89 45 10          	mov    %rax,0x10(%rbp)
    2ad9:	48 89 55 18          	mov    %rdx,0x18(%rbp)
    2add:	48 b8 73 65 72 76 65 	movabs $0x6120726576726573,%rax
    2ae4:	72 20 61 
    2ae7:	48 89 45 20          	mov    %rax,0x20(%rbp)
    2aeb:	c7 45 28 64 64 72 65 	movl   $0x65726464,0x28(%rbp)
    2af2:	66 c7 45 2c 73 73    	movw   $0x7373,0x2c(%rbp)
    2af8:	c6 45 2e 00          	movb   $0x0,0x2e(%rbp)
    2afc:	89 df                	mov    %ebx,%edi
    2afe:	e8 ad e4 ff ff       	callq  fb0 <close@plt>
    2b03:	b8 ff ff ff ff       	mov    $0xffffffff,%eax
    2b08:	e9 23 ff ff ff       	jmpq   2a30 <submitr+0x2e7>
    2b0d:	48 b8 45 72 72 6f 72 	movabs $0x55203a726f727245,%rax
    2b14:	3a 20 55 
    2b17:	48 ba 6e 61 62 6c 65 	movabs $0x6f7420656c62616e,%rdx
    2b1e:	20 74 6f 
    2b21:	48 89 45 00          	mov    %rax,0x0(%rbp)
    2b25:	48 89 55 08          	mov    %rdx,0x8(%rbp)
    2b29:	48 b8 20 63 6f 6e 6e 	movabs $0x7463656e6e6f6320,%rax
    2b30:	65 63 74 
    2b33:	48 ba 20 74 6f 20 74 	movabs $0x20656874206f7420,%rdx
    2b3a:	68 65 20 
    2b3d:	48 89 45 10          	mov    %rax,0x10(%rbp)
    2b41:	48 89 55 18          	mov    %rdx,0x18(%rbp)
    2b45:	c7 45 20 73 65 72 76 	movl   $0x76726573,0x20(%rbp)
    2b4c:	66 c7 45 24 65 72    	movw   $0x7265,0x24(%rbp)
    2b52:	c6 45 26 00          	movb   $0x0,0x26(%rbp)
    2b56:	89 df                	mov    %ebx,%edi
    2b58:	e8 53 e4 ff ff       	callq  fb0 <close@plt>
    2b5d:	b8 ff ff ff ff       	mov    $0xffffffff,%eax
    2b62:	e9 c9 fe ff ff       	jmpq   2a30 <submitr+0x2e7>
    2b67:	48 b8 45 72 72 6f 72 	movabs $0x52203a726f727245,%rax
    2b6e:	3a 20 52 
    2b71:	48 ba 65 73 75 6c 74 	movabs $0x747320746c757365,%rdx
    2b78:	20 73 74 
    2b7b:	48 89 45 00          	mov    %rax,0x0(%rbp)
    2b7f:	48 89 55 08          	mov    %rdx,0x8(%rbp)
    2b83:	48 b8 72 69 6e 67 20 	movabs $0x6f6f7420676e6972,%rax
    2b8a:	74 6f 6f 
    2b8d:	48 ba 20 6c 61 72 67 	movabs $0x202e656772616c20,%rdx
    2b94:	65 2e 20 
    2b97:	48 89 45 10          	mov    %rax,0x10(%rbp)
    2b9b:	48 89 55 18          	mov    %rdx,0x18(%rbp)
    2b9f:	48 b8 49 6e 63 72 65 	movabs $0x6573616572636e49,%rax
    2ba6:	61 73 65 
    2ba9:	48 ba 20 53 55 42 4d 	movabs $0x5254494d42555320,%rdx
    2bb0:	49 54 52 
    2bb3:	48 89 45 20          	mov    %rax,0x20(%rbp)
    2bb7:	48 89 55 28          	mov    %rdx,0x28(%rbp)
    2bbb:	48 b8 5f 4d 41 58 42 	movabs $0x46554258414d5f,%rax
    2bc2:	55 46 00 
    2bc5:	48 89 45 30          	mov    %rax,0x30(%rbp)
    2bc9:	89 df                	mov    %ebx,%edi
    2bcb:	e8 e0 e3 ff ff       	callq  fb0 <close@plt>
    2bd0:	b8 ff ff ff ff       	mov    $0xffffffff,%eax
    2bd5:	e9 56 fe ff ff       	jmpq   2a30 <submitr+0x2e7>
    2bda:	48 b8 45 72 72 6f 72 	movabs $0x52203a726f727245,%rax
    2be1:	3a 20 52 
    2be4:	48 ba 65 73 75 6c 74 	movabs $0x747320746c757365,%rdx
    2beb:	20 73 74 
    2bee:	48 89 45 00          	mov    %rax,0x0(%rbp)
    2bf2:	48 89 55 08          	mov    %rdx,0x8(%rbp)
    2bf6:	48 b8 72 69 6e 67 20 	movabs $0x6e6f6320676e6972,%rax
    2bfd:	63 6f 6e 
    2c00:	48 ba 74 61 69 6e 73 	movabs $0x6e6120736e696174,%rdx
    2c07:	20 61 6e 
    2c0a:	48 89 45 10          	mov    %rax,0x10(%rbp)
    2c0e:	48 89 55 18          	mov    %rdx,0x18(%rbp)
    2c12:	48 b8 20 69 6c 6c 65 	movabs $0x6c6167656c6c6920,%rax
    2c19:	67 61 6c 
    2c1c:	48 ba 20 6f 72 20 75 	movabs $0x72706e7520726f20,%rdx
    2c23:	6e 70 72 
    2c26:	48 89 45 20          	mov    %rax,0x20(%rbp)
    2c2a:	48 89 55 28          	mov    %rdx,0x28(%rbp)
    2c2e:	48 b8 69 6e 74 61 62 	movabs $0x20656c6261746e69,%rax
    2c35:	6c 65 20 
    2c38:	48 ba 63 68 61 72 61 	movabs $0x6574636172616863,%rdx
    2c3f:	63 74 65 
    2c42:	48 89 45 30          	mov    %rax,0x30(%rbp)
    2c46:	48 89 55 38          	mov    %rdx,0x38(%rbp)
    2c4a:	66 c7 45 40 72 2e    	movw   $0x2e72,0x40(%rbp)
    2c50:	c6 45 42 00          	movb   $0x0,0x42(%rbp)
    2c54:	89 df                	mov    %ebx,%edi
    2c56:	e8 55 e3 ff ff       	callq  fb0 <close@plt>
    2c5b:	b8 ff ff ff ff       	mov    $0xffffffff,%eax
    2c60:	e9 cb fd ff ff       	jmpq   2a30 <submitr+0x2e7>
    2c65:	48 b8 45 72 72 6f 72 	movabs $0x43203a726f727245,%rax
    2c6c:	3a 20 43 
    2c6f:	48 ba 6c 69 65 6e 74 	movabs $0x6e7520746e65696c,%rdx
    2c76:	20 75 6e 
    2c79:	48 89 45 00          	mov    %rax,0x0(%rbp)
    2c7d:	48 89 55 08          	mov    %rdx,0x8(%rbp)
    2c81:	48 b8 61 62 6c 65 20 	movabs $0x206f7420656c6261,%rax
    2c88:	74 6f 20 
    2c8b:	48 ba 77 72 69 74 65 	movabs $0x6f74206574697277,%rdx
    2c92:	20 74 6f 
    2c95:	48 89 45 10          	mov    %rax,0x10(%rbp)
    2c99:	48 89 55 18          	mov    %rdx,0x18(%rbp)
    2c9d:	48 b8 20 74 68 65 20 	movabs $0x7365722065687420,%rax
    2ca4:	72 65 73 
    2ca7:	48 ba 75 6c 74 20 73 	movabs $0x7672657320746c75,%rdx
    2cae:	65 72 76 
    2cb1:	48 89 45 20          	mov    %rax,0x20(%rbp)
    2cb5:	48 89 55 28          	mov    %rdx,0x28(%rbp)
    2cb9:	66 c7 45 30 65 72    	movw   $0x7265,0x30(%rbp)
    2cbf:	c6 45 32 00          	movb   $0x0,0x32(%rbp)
    2cc3:	89 df                	mov    %ebx,%edi
    2cc5:	e8 e6 e2 ff ff       	callq  fb0 <close@plt>
    2cca:	b8 ff ff ff ff       	mov    $0xffffffff,%eax
    2ccf:	e9 5c fd ff ff       	jmpq   2a30 <submitr+0x2e7>
    2cd4:	48 b8 45 72 72 6f 72 	movabs $0x43203a726f727245,%rax
    2cdb:	3a 20 43 
    2cde:	48 ba 6c 69 65 6e 74 	movabs $0x6e7520746e65696c,%rdx
    2ce5:	20 75 6e 
    2ce8:	48 89 45 00          	mov    %rax,0x0(%rbp)
    2cec:	48 89 55 08          	mov    %rdx,0x8(%rbp)
    2cf0:	48 b8 61 62 6c 65 20 	movabs $0x206f7420656c6261,%rax
    2cf7:	74 6f 20 
    2cfa:	48 ba 72 65 61 64 20 	movabs $0x7269662064616572,%rdx
    2d01:	66 69 72 
    2d04:	48 89 45 10          	mov    %rax,0x10(%rbp)
    2d08:	48 89 55 18          	mov    %rdx,0x18(%rbp)
    2d0c:	48 b8 73 74 20 68 65 	movabs $0x6564616568207473,%rax
    2d13:	61 64 65 
    2d16:	48 ba 72 20 66 72 6f 	movabs $0x72206d6f72662072,%rdx
    2d1d:	6d 20 72 
    2d20:	48 89 45 20          	mov    %rax,0x20(%rbp)
    2d24:	48 89 55 28          	mov    %rdx,0x28(%rbp)
    2d28:	48 b8 65 73 75 6c 74 	movabs $0x657320746c757365,%rax
    2d2f:	20 73 65 
    2d32:	48 89 45 30          	mov    %rax,0x30(%rbp)
    2d36:	c7 45 38 72 76 65 72 	movl   $0x72657672,0x38(%rbp)
    2d3d:	c6 45 3c 00          	movb   $0x0,0x3c(%rbp)
    2d41:	89 df                	mov    %ebx,%edi
    2d43:	e8 68 e2 ff ff       	callq  fb0 <close@plt>
    2d48:	b8 ff ff ff ff       	mov    $0xffffffff,%eax
    2d4d:	e9 de fc ff ff       	jmpq   2a30 <submitr+0x2e7>
    2d52:	48 8d b4 24 50 20 00 	lea    0x2050(%rsp),%rsi
    2d59:	00 
    2d5a:	48 8d 7c 24 40       	lea    0x40(%rsp),%rdi
    2d5f:	ba 00 20 00 00       	mov    $0x2000,%edx
    2d64:	e8 29 f8 ff ff       	callq  2592 <rio_readlineb>
    2d69:	48 85 c0             	test   %rax,%rax
    2d6c:	0f 8e 96 00 00 00    	jle    2e08 <submitr+0x6bf>
    2d72:	44 8b 44 24 2c       	mov    0x2c(%rsp),%r8d
    2d77:	41 81 f8 c8 00 00 00 	cmp    $0xc8,%r8d
    2d7e:	0f 85 08 01 00 00    	jne    2e8c <submitr+0x743>
    2d84:	48 8d b4 24 50 20 00 	lea    0x2050(%rsp),%rsi
    2d8b:	00 
    2d8c:	48 89 ef             	mov    %rbp,%rdi
    2d8f:	e8 ac e1 ff ff       	callq  f40 <strcpy@plt>
    2d94:	89 df                	mov    %ebx,%edi
    2d96:	e8 15 e2 ff ff       	callq  fb0 <close@plt>
    2d9b:	b9 04 00 00 00       	mov    $0x4,%ecx
    2da0:	48 8d 3d d9 0c 00 00 	lea    0xcd9(%rip),%rdi        # 3a80 <trans_char+0xc0>
    2da7:	48 89 ee             	mov    %rbp,%rsi
    2daa:	f3 a6                	repz cmpsb %es:(%rdi),%ds:(%rsi)
    2dac:	0f 97 c0             	seta   %al
    2daf:	1c 00                	sbb    $0x0,%al
    2db1:	0f be c0             	movsbl %al,%eax
    2db4:	85 c0                	test   %eax,%eax
    2db6:	0f 84 74 fc ff ff    	je     2a30 <submitr+0x2e7>
    2dbc:	b9 05 00 00 00       	mov    $0x5,%ecx
    2dc1:	48 8d 3d bc 0c 00 00 	lea    0xcbc(%rip),%rdi        # 3a84 <trans_char+0xc4>
    2dc8:	48 89 ee             	mov    %rbp,%rsi
    2dcb:	f3 a6                	repz cmpsb %es:(%rdi),%ds:(%rsi)
    2dcd:	0f 97 c0             	seta   %al
    2dd0:	1c 00                	sbb    $0x0,%al
    2dd2:	0f be c0             	movsbl %al,%eax
    2dd5:	85 c0                	test   %eax,%eax
    2dd7:	0f 84 53 fc ff ff    	je     2a30 <submitr+0x2e7>
    2ddd:	b9 03 00 00 00       	mov    $0x3,%ecx
    2de2:	48 8d 3d a0 0c 00 00 	lea    0xca0(%rip),%rdi        # 3a89 <trans_char+0xc9>
    2de9:	48 89 ee             	mov    %rbp,%rsi
    2dec:	f3 a6                	repz cmpsb %es:(%rdi),%ds:(%rsi)
    2dee:	0f 97 c0             	seta   %al
    2df1:	1c 00                	sbb    $0x0,%al
    2df3:	0f be c0             	movsbl %al,%eax
    2df6:	85 c0                	test   %eax,%eax
    2df8:	0f 84 32 fc ff ff    	je     2a30 <submitr+0x2e7>
    2dfe:	b8 ff ff ff ff       	mov    $0xffffffff,%eax
    2e03:	e9 28 fc ff ff       	jmpq   2a30 <submitr+0x2e7>
    2e08:	48 b8 45 72 72 6f 72 	movabs $0x43203a726f727245,%rax
    2e0f:	3a 20 43 
    2e12:	48 ba 6c 69 65 6e 74 	movabs $0x6e7520746e65696c,%rdx
    2e19:	20 75 6e 
    2e1c:	48 89 45 00          	mov    %rax,0x0(%rbp)
    2e20:	48 89 55 08          	mov    %rdx,0x8(%rbp)
    2e24:	48 b8 61 62 6c 65 20 	movabs $0x206f7420656c6261,%rax
    2e2b:	74 6f 20 
    2e2e:	48 ba 72 65 61 64 20 	movabs $0x6174732064616572,%rdx
    2e35:	73 74 61 
    2e38:	48 89 45 10          	mov    %rax,0x10(%rbp)
    2e3c:	48 89 55 18          	mov    %rdx,0x18(%rbp)
    2e40:	48 b8 74 75 73 20 6d 	movabs $0x7373656d20737574,%rax
    2e47:	65 73 73 
    2e4a:	48 ba 61 67 65 20 66 	movabs $0x6d6f726620656761,%rdx
    2e51:	72 6f 6d 
    2e54:	48 89 45 20          	mov    %rax,0x20(%rbp)
    2e58:	48 89 55 28          	mov    %rdx,0x28(%rbp)
    2e5c:	48 b8 20 72 65 73 75 	movabs $0x20746c7573657220,%rax
    2e63:	6c 74 20 
    2e66:	48 89 45 30          	mov    %rax,0x30(%rbp)
    2e6a:	c7 45 38 73 65 72 76 	movl   $0x76726573,0x38(%rbp)
    2e71:	66 c7 45 3c 65 72    	movw   $0x7265,0x3c(%rbp)
    2e77:	c6 45 3e 00          	movb   $0x0,0x3e(%rbp)
    2e7b:	89 df                	mov    %ebx,%edi
    2e7d:	e8 2e e1 ff ff       	callq  fb0 <close@plt>
    2e82:	b8 ff ff ff ff       	mov    $0xffffffff,%eax
    2e87:	e9 a4 fb ff ff       	jmpq   2a30 <submitr+0x2e7>
    2e8c:	4c 8d 8c 24 50 80 00 	lea    0x8050(%rsp),%r9
    2e93:	00 
    2e94:	48 8d 0d 9d 0b 00 00 	lea    0xb9d(%rip),%rcx        # 3a38 <trans_char+0x78>
    2e9b:	48 c7 c2 ff ff ff ff 	mov    $0xffffffffffffffff,%rdx
    2ea2:	be 01 00 00 00       	mov    $0x1,%esi
    2ea7:	48 89 ef             	mov    %rbp,%rdi
    2eaa:	b8 00 00 00 00       	mov    $0x0,%eax
    2eaf:	e8 3c e2 ff ff       	callq  10f0 <__sprintf_chk@plt>
    2eb4:	89 df                	mov    %ebx,%edi
    2eb6:	e8 f5 e0 ff ff       	callq  fb0 <close@plt>
    2ebb:	b8 ff ff ff ff       	mov    $0xffffffff,%eax
    2ec0:	e9 6b fb ff ff       	jmpq   2a30 <submitr+0x2e7>
    2ec5:	e8 a6 e0 ff ff       	callq  f70 <__stack_chk_fail@plt>

0000000000002eca <init_timeout>:
    2eca:	85 ff                	test   %edi,%edi
    2ecc:	74 28                	je     2ef6 <init_timeout+0x2c>
    2ece:	53                   	push   %rbx
    2ecf:	89 fb                	mov    %edi,%ebx
    2ed1:	85 ff                	test   %edi,%edi
    2ed3:	78 1a                	js     2eef <init_timeout+0x25>
    2ed5:	48 8d 35 9d f5 ff ff 	lea    -0xa63(%rip),%rsi        # 2479 <sigalrm_handler>
    2edc:	bf 0e 00 00 00       	mov    $0xe,%edi
    2ee1:	e8 ea e0 ff ff       	callq  fd0 <signal@plt>
    2ee6:	89 df                	mov    %ebx,%edi
    2ee8:	e8 b3 e0 ff ff       	callq  fa0 <alarm@plt>
    2eed:	5b                   	pop    %rbx
    2eee:	c3                   	retq   
    2eef:	bb 00 00 00 00       	mov    $0x0,%ebx
    2ef4:	eb df                	jmp    2ed5 <init_timeout+0xb>
    2ef6:	f3 c3                	repz retq 

0000000000002ef8 <init_driver>:
    2ef8:	41 54                	push   %r12
    2efa:	55                   	push   %rbp
    2efb:	53                   	push   %rbx
    2efc:	48 83 ec 20          	sub    $0x20,%rsp
    2f00:	49 89 fc             	mov    %rdi,%r12
    2f03:	64 48 8b 04 25 28 00 	mov    %fs:0x28,%rax
    2f0a:	00 00 
    2f0c:	48 89 44 24 18       	mov    %rax,0x18(%rsp)
    2f11:	31 c0                	xor    %eax,%eax
    2f13:	be 01 00 00 00       	mov    $0x1,%esi
    2f18:	bf 0d 00 00 00       	mov    $0xd,%edi
    2f1d:	e8 ae e0 ff ff       	callq  fd0 <signal@plt>
    2f22:	be 01 00 00 00       	mov    $0x1,%esi
    2f27:	bf 1d 00 00 00       	mov    $0x1d,%edi
    2f2c:	e8 9f e0 ff ff       	callq  fd0 <signal@plt>
    2f31:	be 01 00 00 00       	mov    $0x1,%esi
    2f36:	bf 1d 00 00 00       	mov    $0x1d,%edi
    2f3b:	e8 90 e0 ff ff       	callq  fd0 <signal@plt>
    2f40:	ba 00 00 00 00       	mov    $0x0,%edx
    2f45:	be 01 00 00 00       	mov    $0x1,%esi
    2f4a:	bf 02 00 00 00       	mov    $0x2,%edi
    2f4f:	e8 ac e1 ff ff       	callq  1100 <socket@plt>
    2f54:	85 c0                	test   %eax,%eax
    2f56:	0f 88 a3 00 00 00    	js     2fff <init_driver+0x107>
    2f5c:	89 c3                	mov    %eax,%ebx
    2f5e:	48 8d 3d 15 06 00 00 	lea    0x615(%rip),%rdi        # 357a <_IO_stdin_used+0x30a>
    2f65:	e8 76 e0 ff ff       	callq  fe0 <gethostbyname@plt>
    2f6a:	48 85 c0             	test   %rax,%rax
    2f6d:	0f 84 df 00 00 00    	je     3052 <init_driver+0x15a>
    2f73:	48 89 e5             	mov    %rsp,%rbp
    2f76:	48 c7 44 24 02 00 00 	movq   $0x0,0x2(%rsp)
    2f7d:	00 00 
    2f7f:	c7 45 0a 00 00 00 00 	movl   $0x0,0xa(%rbp)
    2f86:	66 c7 45 0e 00 00    	movw   $0x0,0xe(%rbp)
    2f8c:	66 c7 04 24 02 00    	movw   $0x2,(%rsp)
    2f92:	48 63 50 14          	movslq 0x14(%rax),%rdx
    2f96:	48 8b 40 18          	mov    0x18(%rax),%rax
    2f9a:	48 8b 30             	mov    (%rax),%rsi
    2f9d:	48 8d 7d 04          	lea    0x4(%rbp),%rdi
    2fa1:	b9 0c 00 00 00       	mov    $0xc,%ecx
    2fa6:	e8 45 e0 ff ff       	callq  ff0 <__memmove_chk@plt>
    2fab:	66 c7 44 24 02 3c 9a 	movw   $0x9a3c,0x2(%rsp)
    2fb2:	ba 10 00 00 00       	mov    $0x10,%edx
    2fb7:	48 89 ee             	mov    %rbp,%rsi
    2fba:	89 df                	mov    %ebx,%edi
    2fbc:	e8 0f e1 ff ff       	callq  10d0 <connect@plt>
    2fc1:	85 c0                	test   %eax,%eax
    2fc3:	0f 88 fb 00 00 00    	js     30c4 <init_driver+0x1cc>
    2fc9:	89 df                	mov    %ebx,%edi
    2fcb:	e8 e0 df ff ff       	callq  fb0 <close@plt>
    2fd0:	66 41 c7 04 24 4f 4b 	movw   $0x4b4f,(%r12)
    2fd7:	41 c6 44 24 02 00    	movb   $0x0,0x2(%r12)
    2fdd:	b8 00 00 00 00       	mov    $0x0,%eax
    2fe2:	48 8b 4c 24 18       	mov    0x18(%rsp),%rcx
    2fe7:	64 48 33 0c 25 28 00 	xor    %fs:0x28,%rcx
    2fee:	00 00 
    2ff0:	0f 85 28 01 00 00    	jne    311e <init_driver+0x226>
    2ff6:	48 83 c4 20          	add    $0x20,%rsp
    2ffa:	5b                   	pop    %rbx
    2ffb:	5d                   	pop    %rbp
    2ffc:	41 5c                	pop    %r12
    2ffe:	c3                   	retq   
    2fff:	48 b8 45 72 72 6f 72 	movabs $0x43203a726f727245,%rax
    3006:	3a 20 43 
    3009:	48 ba 6c 69 65 6e 74 	movabs $0x6e7520746e65696c,%rdx
    3010:	20 75 6e 
    3013:	49 89 04 24          	mov    %rax,(%r12)
    3017:	49 89 54 24 08       	mov    %rdx,0x8(%r12)
    301c:	48 b8 61 62 6c 65 20 	movabs $0x206f7420656c6261,%rax
    3023:	74 6f 20 
    3026:	48 ba 63 72 65 61 74 	movabs $0x7320657461657263,%rdx
    302d:	65 20 73 
    3030:	49 89 44 24 10       	mov    %rax,0x10(%r12)
    3035:	49 89 54 24 18       	mov    %rdx,0x18(%r12)
    303a:	41 c7 44 24 20 6f 63 	movl   $0x656b636f,0x20(%r12)
    3041:	6b 65 
    3043:	66 41 c7 44 24 24 74 	movw   $0x74,0x24(%r12)
    304a:	00 
    304b:	b8 ff ff ff ff       	mov    $0xffffffff,%eax
    3050:	eb 90                	jmp    2fe2 <init_driver+0xea>
    3052:	48 b8 45 72 72 6f 72 	movabs $0x44203a726f727245,%rax
    3059:	3a 20 44 
    305c:	48 ba 4e 53 20 69 73 	movabs $0x6e7520736920534e,%rdx
    3063:	20 75 6e 
    3066:	49 89 04 24          	mov    %rax,(%r12)
    306a:	49 89 54 24 08       	mov    %rdx,0x8(%r12)
    306f:	48 b8 61 62 6c 65 20 	movabs $0x206f7420656c6261,%rax
    3076:	74 6f 20 
    3079:	48 ba 72 65 73 6f 6c 	movabs $0x2065766c6f736572,%rdx
    3080:	76 65 20 
    3083:	49 89 44 24 10       	mov    %rax,0x10(%r12)
    3088:	49 89 54 24 18       	mov    %rdx,0x18(%r12)
    308d:	48 b8 73 65 72 76 65 	movabs $0x6120726576726573,%rax
    3094:	72 20 61 
    3097:	49 89 44 24 20       	mov    %rax,0x20(%r12)
    309c:	41 c7 44 24 28 64 64 	movl   $0x65726464,0x28(%r12)
    30a3:	72 65 
    30a5:	66 41 c7 44 24 2c 73 	movw   $0x7373,0x2c(%r12)
    30ac:	73 
    30ad:	41 c6 44 24 2e 00    	movb   $0x0,0x2e(%r12)
    30b3:	89 df                	mov    %ebx,%edi
    30b5:	e8 f6 de ff ff       	callq  fb0 <close@plt>
    30ba:	b8 ff ff ff ff       	mov    $0xffffffff,%eax
    30bf:	e9 1e ff ff ff       	jmpq   2fe2 <init_driver+0xea>
    30c4:	48 b8 45 72 72 6f 72 	movabs $0x55203a726f727245,%rax
    30cb:	3a 20 55 
    30ce:	48 ba 6e 61 62 6c 65 	movabs $0x6f7420656c62616e,%rdx
    30d5:	20 74 6f 
    30d8:	49 89 04 24          	mov    %rax,(%r12)
    30dc:	49 89 54 24 08       	mov    %rdx,0x8(%r12)
    30e1:	48 b8 20 63 6f 6e 6e 	movabs $0x7463656e6e6f6320,%rax
    30e8:	65 63 74 
    30eb:	48 ba 20 74 6f 20 73 	movabs $0x76726573206f7420,%rdx
    30f2:	65 72 76 
    30f5:	49 89 44 24 10       	mov    %rax,0x10(%r12)
    30fa:	49 89 54 24 18       	mov    %rdx,0x18(%r12)
    30ff:	66 41 c7 44 24 20 65 	movw   $0x7265,0x20(%r12)
    3106:	72 
    3107:	41 c6 44 24 22 00    	movb   $0x0,0x22(%r12)
    310d:	89 df                	mov    %ebx,%edi
    310f:	e8 9c de ff ff       	callq  fb0 <close@plt>
    3114:	b8 ff ff ff ff       	mov    $0xffffffff,%eax
    3119:	e9 c4 fe ff ff       	jmpq   2fe2 <init_driver+0xea>
    311e:	e8 4d de ff ff       	callq  f70 <__stack_chk_fail@plt>

0000000000003123 <driver_post>:
    3123:	53                   	push   %rbx
    3124:	4c 89 cb             	mov    %r9,%rbx
    3127:	45 85 c0             	test   %r8d,%r8d
    312a:	75 18                	jne    3144 <driver_post+0x21>
    312c:	48 85 ff             	test   %rdi,%rdi
    312f:	74 05                	je     3136 <driver_post+0x13>
    3131:	80 3f 00             	cmpb   $0x0,(%rdi)
    3134:	75 37                	jne    316d <driver_post+0x4a>
    3136:	66 c7 03 4f 4b       	movw   $0x4b4f,(%rbx)
    313b:	c6 43 02 00          	movb   $0x0,0x2(%rbx)
    313f:	44 89 c0             	mov    %r8d,%eax
    3142:	5b                   	pop    %rbx
    3143:	c3                   	retq   
    3144:	48 89 ca             	mov    %rcx,%rdx
    3147:	48 8d 35 3e 09 00 00 	lea    0x93e(%rip),%rsi        # 3a8c <trans_char+0xcc>
    314e:	bf 01 00 00 00       	mov    $0x1,%edi
    3153:	b8 00 00 00 00       	mov    $0x0,%eax
    3158:	e8 13 df ff ff       	callq  1070 <__printf_chk@plt>
    315d:	66 c7 03 4f 4b       	movw   $0x4b4f,(%rbx)
    3162:	c6 43 02 00          	movb   $0x0,0x2(%rbx)
    3166:	b8 00 00 00 00       	mov    $0x0,%eax
    316b:	eb d5                	jmp    3142 <driver_post+0x1f>
    316d:	48 83 ec 08          	sub    $0x8,%rsp
    3171:	41 51                	push   %r9
    3173:	49 89 c9             	mov    %rcx,%r9
    3176:	49 89 d0             	mov    %rdx,%r8
    3179:	48 89 f9             	mov    %rdi,%rcx
    317c:	48 89 f2             	mov    %rsi,%rdx
    317f:	be 9a 3c 00 00       	mov    $0x3c9a,%esi
    3184:	48 8d 3d ef 03 00 00 	lea    0x3ef(%rip),%rdi        # 357a <_IO_stdin_used+0x30a>
    318b:	e8 b9 f5 ff ff       	callq  2749 <submitr>
    3190:	48 83 c4 10          	add    $0x10,%rsp
    3194:	eb ac                	jmp    3142 <driver_post+0x1f>

0000000000003196 <check>:
    3196:	89 f8                	mov    %edi,%eax
    3198:	c1 e8 1c             	shr    $0x1c,%eax
    319b:	85 c0                	test   %eax,%eax
    319d:	74 1d                	je     31bc <check+0x26>
    319f:	b9 00 00 00 00       	mov    $0x0,%ecx
    31a4:	83 f9 1f             	cmp    $0x1f,%ecx
    31a7:	7f 0d                	jg     31b6 <check+0x20>
    31a9:	89 f8                	mov    %edi,%eax
    31ab:	d3 e8                	shr    %cl,%eax
    31ad:	3c 0a                	cmp    $0xa,%al
    31af:	74 11                	je     31c2 <check+0x2c>
    31b1:	83 c1 08             	add    $0x8,%ecx
    31b4:	eb ee                	jmp    31a4 <check+0xe>
    31b6:	b8 01 00 00 00       	mov    $0x1,%eax
    31bb:	c3                   	retq   
    31bc:	b8 00 00 00 00       	mov    $0x0,%eax
    31c1:	c3                   	retq   
    31c2:	b8 00 00 00 00       	mov    $0x0,%eax
    31c7:	c3                   	retq   

00000000000031c8 <gencookie>:
    31c8:	53                   	push   %rbx
    31c9:	83 c7 01             	add    $0x1,%edi
    31cc:	e8 4f dd ff ff       	callq  f20 <srandom@plt>
    31d1:	e8 5a de ff ff       	callq  1030 <random@plt>
    31d6:	89 c3                	mov    %eax,%ebx
    31d8:	89 c7                	mov    %eax,%edi
    31da:	e8 b7 ff ff ff       	callq  3196 <check>
    31df:	85 c0                	test   %eax,%eax
    31e1:	74 ee                	je     31d1 <gencookie+0x9>
    31e3:	89 d8                	mov    %ebx,%eax
    31e5:	5b                   	pop    %rbx
    31e6:	c3                   	retq   
    31e7:	66 0f 1f 84 00 00 00 	nopw   0x0(%rax,%rax,1)
    31ee:	00 00 

00000000000031f0 <__libc_csu_init>:
    31f0:	41 57                	push   %r15
    31f2:	41 56                	push   %r14
    31f4:	49 89 d7             	mov    %rdx,%r15
    31f7:	41 55                	push   %r13
    31f9:	41 54                	push   %r12
    31fb:	4c 8d 25 b6 1a 20 00 	lea    0x201ab6(%rip),%r12        # 204cb8 <__frame_dummy_init_array_entry>
    3202:	55                   	push   %rbp
    3203:	48 8d 2d b6 1a 20 00 	lea    0x201ab6(%rip),%rbp        # 204cc0 <__init_array_end>
    320a:	53                   	push   %rbx
    320b:	41 89 fd             	mov    %edi,%r13d
    320e:	49 89 f6             	mov    %rsi,%r14
    3211:	4c 29 e5             	sub    %r12,%rbp
    3214:	48 83 ec 08          	sub    $0x8,%rsp
    3218:	48 c1 fd 03          	sar    $0x3,%rbp
    321c:	e8 af dc ff ff       	callq  ed0 <_init>
    3221:	48 85 ed             	test   %rbp,%rbp
    3224:	74 20                	je     3246 <__libc_csu_init+0x56>
    3226:	31 db                	xor    %ebx,%ebx
    3228:	0f 1f 84 00 00 00 00 	nopl   0x0(%rax,%rax,1)
    322f:	00 
    3230:	4c 89 fa             	mov    %r15,%rdx
    3233:	4c 89 f6             	mov    %r14,%rsi
    3236:	44 89 ef             	mov    %r13d,%edi
    3239:	41 ff 14 dc          	callq  *(%r12,%rbx,8)
    323d:	48 83 c3 01          	add    $0x1,%rbx
    3241:	48 39 dd             	cmp    %rbx,%rbp
    3244:	75 ea                	jne    3230 <__libc_csu_init+0x40>
    3246:	48 83 c4 08          	add    $0x8,%rsp
    324a:	5b                   	pop    %rbx
    324b:	5d                   	pop    %rbp
    324c:	41 5c                	pop    %r12
    324e:	41 5d                	pop    %r13
    3250:	41 5e                	pop    %r14
    3252:	41 5f                	pop    %r15
    3254:	c3                   	retq   
    3255:	90                   	nop
    3256:	66 2e 0f 1f 84 00 00 	nopw   %cs:0x0(%rax,%rax,1)
    325d:	00 00 00 

0000000000003260 <__libc_csu_fini>:
    3260:	f3 c3                	repz retq 

Disassembly of section .fini:

0000000000003264 <_fini>:
    3264:	48 83 ec 08          	sub    $0x8,%rsp
    3268:	48 83 c4 08          	add    $0x8,%rsp
    326c:	c3                   	retq   
